

Microchip Technology PIC18 PRO Macro Assembler V1.34 build -361300703 
                                                                                               Fri May 31 12:39:01 2019

Microchip Technology Omniscient Code Generator (PRO mode) build 201502162209
     1                           	processor	18F2520
     2                           	fnconf	rparam,??,?,0
     3                           	opt	pw 120
     4                           	opt	pm
     5                           	psect	mediumconst,global,reloc=2,class=MEDIUMCONST,delta=1
     6                           	psect	cinit,global,reloc=2,class=CODE,delta=1
     7                           	psect	cstackBANK0,global,class=BANK0,space=1,delta=1
     8                           	psect	cstackCOMRAM,global,class=COMRAM,space=1,delta=1
     9                           	psect	text0,global,reloc=2,class=CODE,delta=1
    10                           	psect	text1,global,reloc=2,class=CODE,delta=1
    11                           	psect	text2,global,reloc=2,class=CODE,delta=1
    12                           	psect	text3,global,reloc=2,class=CODE,delta=1
    13                           	psect	text4,global,reloc=2,class=CODE,delta=1
    14                           	psect	text5,global,reloc=2,class=CODE,delta=1
    15                           	psect	text6,global,reloc=2,class=CODE,delta=1
    16                           	psect	text7,global,reloc=2,class=CODE,delta=1
    17                           	psect	text8,global,reloc=2,class=CODE,delta=1
    18                           	psect	text9,global,reloc=2,class=CODE,delta=1
    19                           	psect	text10,global,reloc=2,class=CODE,delta=1
    20                           	psect	text11,global,reloc=2,class=CODE,delta=1
    21                           	psect	text12,global,reloc=2,class=CODE,delta=1
    22                           	psect	text13,global,reloc=2,class=CODE,delta=1
    23                           	psect	text14,global,reloc=2,class=CODE,delta=1
    24                           	psect	text15,global,reloc=2,class=CODE,delta=1
    25                           	psect	text16,global,reloc=2,class=CODE,delta=1
    26                           	psect	text17,global,reloc=2,class=CODE,delta=1
    27                           	psect	text18,global,reloc=2,class=CODE,delta=1
    28                           	psect	text19,global,reloc=2,class=CODE,delta=1
    29                           	psect	text20,global,reloc=2,class=CODE,delta=1
    30                           	psect	text21,global,reloc=2,class=CODE,delta=1
    31                           	psect	text22,global,reloc=2,class=CODE,delta=1
    32                           	psect	text23,global,reloc=2,class=CODE,delta=1
    33                           	psect	text24,global,reloc=2,class=CODE,delta=1
    34                           	psect	text25,global,reloc=2,class=CODE,delta=1
    35                           	psect	text26,global,reloc=2,class=CODE,delta=1
    36                           	psect	text27,global,reloc=2,class=CODE,delta=1
    37                           	psect	text28,global,reloc=2,class=CODE,delta=1
    38                           	psect	text29,global,reloc=2,class=CODE,delta=1
    39                           	psect	text30,global,reloc=2,class=CODE,delta=1
    40                           	psect	text31,global,reloc=2,class=CODE,delta=1
    41                           	psect	text32,global,reloc=2,class=CODE,delta=1
    42                           	psect	text33,global,reloc=2,class=CODE,delta=1
    43                           	psect	text34,global,reloc=2,class=CODE,delta=1
    44                           	psect	text35,global,reloc=2,class=CODE,delta=1
    45                           	psect	text36,global,reloc=2,class=CODE,delta=1
    46                           	psect	text37,global,reloc=2,class=CODE,delta=1
    47                           	psect	text38,global,reloc=2,class=CODE,delta=1
    48                           	psect	text39,global,reloc=2,class=CODE,delta=1
    49                           	psect	intsave_regs,global,class=BIGRAM,space=1,delta=1
    50                           	psect	rparam,global,class=COMRAM,space=1,delta=1
    51                           	psect	pa_nodes,global,class=CODE,delta=1
    52  0000                     tblptru	equ	0xFF8
    53                           tblptrh	equ	0xFF7
    54                           tblptrl	equ	0xFF6
    55                           tablat	equ	0xFF5
    56                           prodh	equ	0xFF4
    57                           prodl	equ	0xFF3
    58                           indf0	equ	0xFEF
    59                           fsr0h	equ	0xFEA
    60                           fsr0l	equ	0xFE9
    61                           wreg	equ	0xFE8
    62                           indf2	equ	0xFDF
    63                           postinc2	equ	0xFDE
    64                           postdec2	equ	0xFDD
    65                           fsr2h	equ	0xFDA
    66                           fsr2l	equ	0xFD9
    67                           status	equ	0xFD8
    68                           
    69                           	psect	mediumconst
    70  007EEE                     __pmediumconst:
    71                           	opt stack 0
    72  007EEE  00                 	db	0
    73  007EEF                     __npowers_:
    74                           	opt stack 0
    75  007EEF  0000               	dw	0
    76  007EF1  3F80               	dw	16256
    77  007EF3  CCCD               	dw	52429
    78  007EF5  3DCC               	dw	15820
    79  007EF7  D70A               	dw	55050
    80  007EF9  3C23               	dw	15395
    81  007EFB  126F               	dw	4719
    82  007EFD  3A83               	dw	14979
    83  007EFF  B717               	dw	46871
    84  007F01  38D1               	dw	14545
    85  007F03  C5AC               	dw	50604
    86  007F05  3727               	dw	14119
    87  007F07  37BD               	dw	14269
    88  007F09  3586               	dw	13702
    89  007F0B  BF95               	dw	49045
    90  007F0D  33D6               	dw	13270
    91  007F0F  CC77               	dw	52343
    92  007F11  322B               	dw	12843
    93  007F13  705F               	dw	28767
    94  007F15  3089               	dw	12425
    95  007F17  E6FF               	dw	59135
    96  007F19  2EDB               	dw	11995
    97  007F1B  E508               	dw	58632
    98  007F1D  1E3C               	dw	7740
    99  007F1F  4260               	dw	16992
   100  007F21  0DA2               	dw	3490
   101  007F23                     __end_of__npowers_:
   102                           	opt stack 0
   103  007F23                     __powers_:
   104                           	opt stack 0
   105  007F23  0000               	dw	0
   106  007F25  3F80               	dw	16256
   107  007F27  0000               	dw	0
   108  007F29  4120               	dw	16672
   109  007F2B  0000               	dw	0
   110  007F2D  42C8               	dw	17096
   111  007F2F  0000               	dw	0
   112  007F31  447A               	dw	17530
   113  007F33  4000               	dw	16384
   114  007F35  461C               	dw	17948
   115  007F37  5000               	dw	20480
   116  007F39  47C3               	dw	18371
   117  007F3B  2400               	dw	9216
   118  007F3D  4974               	dw	18804
   119  007F3F  9680               	dw	38528
   120  007F41  4B18               	dw	19224
   121  007F43  BC20               	dw	48160
   122  007F45  4CBE               	dw	19646
   123  007F47  6B28               	dw	27432
   124  007F49  4E6E               	dw	20078
   125  007F4B  02F9               	dw	761
   126  007F4D  5015               	dw	20501
   127  007F4F  78EC               	dw	30956
   128  007F51  60AD               	dw	24749
   129  007F53  F2CA               	dw	62154
   130  007F55  7149               	dw	29001
   131  007F57                     __end_of__powers_:
   132                           	opt stack 0
   133  007F57                     _dpowers:
   134                           	opt stack 0
   135  007F57  0001               	dw	1
   136  007F59  0000               	dw	0
   137  007F5B  000A               	dw	10
   138  007F5D  0000               	dw	0
   139  007F5F  0064               	dw	100
   140  007F61  0000               	dw	0
   141  007F63  03E8               	dw	1000
   142  007F65  0000               	dw	0
   143  007F67  2710               	dw	10000
   144  007F69  0000               	dw	0
   145  007F6B  86A0               	dw	34464
   146  007F6D  0001               	dw	1
   147  007F6F  4240               	dw	16960
   148  007F71  000F               	dw	15
   149  007F73  9680               	dw	38528
   150  007F75  0098               	dw	152
   151  007F77  E100               	dw	57600
   152  007F79  05F5               	dw	1525
   153  007F7B  CA00               	dw	51712
   154  007F7D  3B9A               	dw	15258
   155  007F7F                     __end_of_dpowers:
   156                           	opt stack 0
   157  0000                     _ADCON1	set	4033
   158  0000                     _BAUDCON	set	4024
   159  0000                     _CMCON	set	4020
   160  0000                     _OSCCON	set	4051
   161  0000                     _RCSTA	set	4011
   162  0000                     _SPBRG	set	4015
   163  0000                     _SSPADD	set	4040
   164  0000                     _SSPBUF	set	4041
   165  0000                     _SSPCON1	set	4038
   166  0000                     _SSPCON1bits	set	4038
   167  0000                     _SSPCON2	set	4037
   168  0000                     _SSPCON2bits	set	4037
   169  0000                     _SSPSTAT	set	4039
   170  0000                     _SSPSTATbits	set	4039
   171  0000                     _TRISA	set	3986
   172  0000                     _TRISB	set	3987
   173  0000                     _TRISC	set	3988
   174  0000                     _TRISCbits	set	3988
   175  0000                     _TXREG	set	4013
   176  0000                     _TXSTA	set	4012
   177  0000                     _TXSTAbits	set	4012
   178  007F7F                     STR_6:
   179  007F7F  50                 	db	80	;'P'
   180  007F80  72                 	db	114	;'r'
   181  007F81  65                 	db	101	;'e'
   182  007F82  73                 	db	115	;'s'
   183  007F83  73                 	db	115	;'s'
   184  007F84  75                 	db	117	;'u'
   185  007F85  72                 	db	114	;'r'
   186  007F86  65                 	db	101	;'e'
   187  007F87  3A                 	db	58	;':'
   188  007F88  20                 	db	32
   189  007F89  20                 	db	32
   190  007F8A  20                 	db	32
   191  007F8B  20                 	db	32
   192  007F8C  25                 	db	37
   193  007F8D  30                 	db	48	;'0'
   194  007F8E  31                 	db	49	;'1'
   195  007F8F  30                 	db	48	;'0'
   196  007F90  2E                 	db	46
   197  007F91  35                 	db	53	;'5'
   198  007F92  66                 	db	102	;'f'
   199  007F93  20                 	db	32
   200  007F94  50                 	db	80	;'P'
   201  007F95  73                 	db	115	;'s'
   202  007F96  69                 	db	105	;'i'
   203  007F97  0A                 	db	10
   204  007F98  0A                 	db	10
   205  007F99  00                 	db	0
   206  007F9A                     STR_5:
   207  007F9A  54                 	db	84	;'T'
   208  007F9B  65                 	db	101	;'e'
   209  007F9C  6D                 	db	109	;'m'
   210  007F9D  70                 	db	112	;'p'
   211  007F9E  65                 	db	101	;'e'
   212  007F9F  72                 	db	114	;'r'
   213  007FA0  61                 	db	97	;'a'
   214  007FA1  74                 	db	116	;'t'
   215  007FA2  75                 	db	117	;'u'
   216  007FA3  72                 	db	114	;'r'
   217  007FA4  65                 	db	101	;'e'
   218  007FA5  3A                 	db	58	;':'
   219  007FA6  20                 	db	32
   220  007FA7  25                 	db	37
   221  007FA8  30                 	db	48	;'0'
   222  007FA9  31                 	db	49	;'1'
   223  007FAA  30                 	db	48	;'0'
   224  007FAB  2E                 	db	46
   225  007FAC  35                 	db	53	;'5'
   226  007FAD  66                 	db	102	;'f'
   227  007FAE  20                 	db	32
   228  007FAF  B0                 	db	-80
   229  007FB0  43                 	db	67	;'C'
   230  007FB1  0A                 	db	10
   231  007FB2  00                 	db	0
   232  007FB3                     STR_1:
   233  007FB3  4F                 	db	79	;'O'
   234  007FB4  70                 	db	112	;'p'
   235  007FB5  65                 	db	101	;'e'
   236  007FB6  6E                 	db	110	;'n'
   237  007FB7  46                 	db	70	;'F'
   238  007FB8  69                 	db	105	;'i'
   239  007FB9  65                 	db	101	;'e'
   240  007FBA  6C                 	db	108	;'l'
   241  007FBB  64                 	db	100	;'d'
   242  007FBC  20                 	db	32
   243  007FBD  73                 	db	115	;'s'
   244  007FBE  65                 	db	101	;'e'
   245  007FBF  6E                 	db	110	;'n'
   246  007FC0  73                 	db	115	;'s'
   247  007FC1  6F                 	db	111	;'o'
   248  007FC2  72                 	db	114	;'r'
   249  007FC3  20                 	db	32
   250  007FC4  74                 	db	116	;'t'
   251  007FC5  65                 	db	101	;'e'
   252  007FC6  73                 	db	115	;'s'
   253  007FC7  74                 	db	116	;'t'
   254  007FC8  65                 	db	101	;'e'
   255  007FC9  72                 	db	114	;'r'
   256  007FCA  0A                 	db	10
   257  007FCB  00                 	db	0
   258  007FCC                     STR_4:
   259  007FCC  53                 	db	83	;'S'
   260  007FCD  74                 	db	116	;'t'
   261  007FCE  61                 	db	97	;'a'
   262  007FCF  74                 	db	116	;'t'
   263  007FD0  75                 	db	117	;'u'
   264  007FD1  73                 	db	115	;'s'
   265  007FD2  3A                 	db	58	;':'
   266  007FD3  20                 	db	32
   267  007FD4  20                 	db	32
   268  007FD5  20                 	db	32
   269  007FD6  20                 	db	32
   270  007FD7  20                 	db	32
   271  007FD8  20                 	db	32
   272  007FD9  25                 	db	37
   273  007FDA  34                 	db	52	;'4'
   274  007FDB  69                 	db	105	;'i'
   275  007FDC  0A                 	db	10
   276  007FDD  00                 	db	0
   277  007FDE                     STR_3:
   278  007FDE  53                 	db	83	;'S'
   279  007FDF  65                 	db	101	;'e'
   280  007FE0  72                 	db	114	;'r'
   281  007FE1  69                 	db	105	;'i'
   282  007FE2  61                 	db	97	;'a'
   283  007FE3  6C                 	db	108	;'l'
   284  007FE4  3A                 	db	58	;':'
   285  007FE5  20                 	db	32
   286  007FE6  20                 	db	32
   287  007FE7  20                 	db	32
   288  007FE8  20                 	db	32
   289  007FE9  20                 	db	32
   290  007FEA  20                 	db	32
   291  007FEB  25                 	db	37
   292  007FEC  36                 	db	54	;'6'
   293  007FED  69                 	db	105	;'i'
   294  007FEE  0A                 	db	10
   295  007FEF  00                 	db	0
   296  007FF0                     STR_2:
   297  007FF0  50                 	db	80	;'P'
   298  007FF1  55                 	db	85	;'U'
   299  007FF2  43                 	db	67	;'C'
   300  007FF3  2D                 	db	45
   301  007FF4  52                 	db	82	;'R'
   302  007FF5  69                 	db	105	;'i'
   303  007FF6  6F                 	db	111	;'o'
   304  007FF7  20                 	db	32
   305  007FF8  4C                 	db	76	;'L'
   306  007FF9  53                 	db	83	;'S'
   307  007FFA  46                 	db	70	;'F'
   308  007FFB  4F                 	db	79	;'O'
   309  007FFC  0A                 	db	10
   310  007FFD  00                 	db	0
   311                           
   312                           ; #config settings
   313  007FFE  00                 	db	0	; dummy byte at the end
   314  0000                     tblptru	equ	0xFF8
   315                           tblptrh	equ	0xFF7
   316                           tblptrl	equ	0xFF6
   317                           tablat	equ	0xFF5
   318                           prodh	equ	0xFF4
   319                           prodl	equ	0xFF3
   320                           indf0	equ	0xFEF
   321                           fsr0h	equ	0xFEA
   322                           fsr0l	equ	0xFE9
   323                           wreg	equ	0xFE8
   324                           indf2	equ	0xFDF
   325                           postinc2	equ	0xFDE
   326                           postdec2	equ	0xFDD
   327                           fsr2h	equ	0xFDA
   328                           fsr2l	equ	0xFD9
   329                           status	equ	0xFD8
   330                           
   331                           	psect	cinit
   332  0064EA                     __pcinit:
   333                           	opt stack 0
   334  0064EA                     start_initialization:
   335                           	opt stack 0
   336  0064EA                     __initialization:
   337                           	opt stack 0
   338  0064EA                     end_of_initialization:
   339                           	opt stack 0
   340  0064EA                     __end_of__initialization:
   341                           	opt stack 0
   342  0064EA  0E00               	movlw	low (__Lmediumconst shr (0+16))
   343  0064EC  6EF8               	movwf	tblptru,c
   344  0064EE  0100               	movlb	0
   345  0064F0  EF2A  F038         	goto	_main	;jump to C main() function
   346                           tblptru	equ	0xFF8
   347                           tblptrh	equ	0xFF7
   348                           tblptrl	equ	0xFF6
   349                           tablat	equ	0xFF5
   350                           prodh	equ	0xFF4
   351                           prodl	equ	0xFF3
   352                           indf0	equ	0xFEF
   353                           fsr0h	equ	0xFEA
   354                           fsr0l	equ	0xFE9
   355                           wreg	equ	0xFE8
   356                           indf2	equ	0xFDF
   357                           postinc2	equ	0xFDE
   358                           postdec2	equ	0xFDD
   359                           fsr2h	equ	0xFDA
   360                           fsr2l	equ	0xFD9
   361                           status	equ	0xFD8
   362                           
   363                           	psect	cstackBANK0
   364  000080                     __pcstackBANK0:
   365                           	opt stack 0
   366  000080                     main@aux:
   367                           	opt stack 0
   368                           
   369                           ; 20 bytes @ 0x0
   370  000080                     	ds	20
   371                           tblptru	equ	0xFF8
   372                           tblptrh	equ	0xFF7
   373                           tblptrl	equ	0xFF6
   374                           tablat	equ	0xFF5
   375                           prodh	equ	0xFF4
   376                           prodl	equ	0xFF3
   377                           indf0	equ	0xFEF
   378                           fsr0h	equ	0xFEA
   379                           fsr0l	equ	0xFE9
   380                           wreg	equ	0xFE8
   381                           indf2	equ	0xFDF
   382                           postinc2	equ	0xFDE
   383                           postdec2	equ	0xFDD
   384                           fsr2h	equ	0xFDA
   385                           fsr2l	equ	0xFD9
   386                           status	equ	0xFD8
   387                           
   388                           	psect	cstackCOMRAM
   389  000001                     __pcstackCOMRAM:
   390                           	opt stack 0
   391  000001                     ??_I2C_Idle:
   392  000001                     ??_isdigit:
   393  000001                     ?___wmul:
   394                           	opt stack 0
   395  000001                     ?___awmod:
   396                           	opt stack 0
   397  000001                     ?__tdiv_to_l_:
   398                           	opt stack 0
   399  000001                     ?__div_to_l_:
   400                           	opt stack 0
   401  000001                     ?___flpack:
   402                           	opt stack 0
   403  000001                     ?___flneg:
   404                           	opt stack 0
   405  000001                     ?___lldiv:
   406                           	opt stack 0
   407  000001                     I2C_Init@clock_output:
   408                           	opt stack 0
   409  000001                     writeserial@data:
   410                           	opt stack 0
   411  000001                     ___lbmod@divisor:
   412                           	opt stack 0
   413  000001                     Delay_ms@count:
   414                           	opt stack 0
   415  000001                     ___wmul@multiplier:
   416                           	opt stack 0
   417  000001                     ___awmod@dividend:
   418                           	opt stack 0
   419  000001                     ___flpack@arg:
   420                           	opt stack 0
   421  000001                     __div_to_l_@f1:
   422                           	opt stack 0
   423  000001                     ___flge@ff1:
   424                           	opt stack 0
   425  000001                     ___flneg@f1:
   426                           	opt stack 0
   427  000001                     __tdiv_to_l_@f1:
   428                           	opt stack 0
   429  000001                     ___lldiv@dividend:
   430                           	opt stack 0
   431                           
   432                           ; 4 bytes @ 0x0
   433  000001                     	ds	1
   434  000002                     I2C_ReadByte@acknowledge:
   435                           	opt stack 0
   436  000002                     I2C_WriteByte@data_out:
   437                           	opt stack 0
   438  000002                     _isdigit$1182:
   439                           	opt stack 0
   440  000002                     ___lbmod@dividend:
   441                           	opt stack 0
   442  000002                     putrsserial@data:
   443                           	opt stack 0
   444                           
   445                           ; 2 bytes @ 0x1
   446  000002                     	ds	1
   447  000003                     ??_Delay_ms:
   448  000003                     I2C_ReadByte@buffer_I2C:
   449                           	opt stack 0
   450  000003                     isdigit@c:
   451                           	opt stack 0
   452  000003                     ___lbmod@counter:
   453                           	opt stack 0
   454  000003                     ___wmul@multiplicand:
   455                           	opt stack 0
   456  000003                     ___awmod@divisor:
   457                           	opt stack 0
   458                           
   459                           ; 2 bytes @ 0x2
   460  000003                     	ds	1
   461  000004                     ??_putrsserial:
   462  000004                     ?_ES15007_Get_Serial:
   463                           	opt stack 0
   464  000004                     ES15007_Get_Status@status:
   465                           	opt stack 0
   466  000004                     ___lbmod@rem:
   467                           	opt stack 0
   468  000004                     Delay_ms@i:
   469                           	opt stack 0
   470                           
   471                           ; 2 bytes @ 0x3
   472  000004                     	ds	1
   473  000005                     ___awmod@counter:
   474                           	opt stack 0
   475  000005                     ___flpack@exp:
   476                           	opt stack 0
   477  000005                     ___lbdiv@divisor:
   478                           	opt stack 0
   479  000005                     ___wmul@product:
   480                           	opt stack 0
   481  000005                     __div_to_l_@f2:
   482                           	opt stack 0
   483  000005                     ___flge@ff2:
   484                           	opt stack 0
   485  000005                     __tdiv_to_l_@f2:
   486                           	opt stack 0
   487  000005                     ___lldiv@divisor:
   488                           	opt stack 0
   489                           
   490                           ; 4 bytes @ 0x4
   491  000005                     	ds	1
   492  000006                     ___awmod@sign:
   493                           	opt stack 0
   494  000006                     ___flpack@sign:
   495                           	opt stack 0
   496  000006                     ___lbdiv@dividend:
   497                           	opt stack 0
   498  000006                     ES15007_Get_Serial@serial:
   499                           	opt stack 0
   500                           
   501                           ; 2 bytes @ 0x5
   502  000006                     	ds	1
   503  000007                     ??___flpack:
   504  000007                     ?___awdiv:
   505                           	opt stack 0
   506  000007                     ___lbdiv@counter:
   507                           	opt stack 0
   508  000007                     ___awdiv@dividend:
   509                           	opt stack 0
   510                           
   511                           ; 2 bytes @ 0x6
   512  000007                     	ds	1
   513  000008                     ___lbdiv@quotient:
   514                           	opt stack 0
   515                           
   516                           ; 1 bytes @ 0x7
   517  000008                     	ds	1
   518  000009                     ??__tdiv_to_l_:
   519  000009                     ___awdiv@divisor:
   520                           	opt stack 0
   521  000009                     __div_to_l_@quot:
   522                           	opt stack 0
   523  000009                     ___lldiv@quotient:
   524                           	opt stack 0
   525                           
   526                           ; 4 bytes @ 0x8
   527  000009                     	ds	2
   528  00000B                     ?___altofl:
   529                           	opt stack 0
   530  00000B                     ?___lltofl:
   531                           	opt stack 0
   532  00000B                     ?___lwtofl:
   533                           	opt stack 0
   534  00000B                     ___awdiv@counter:
   535                           	opt stack 0
   536  00000B                     ___lwtofl@c:
   537                           	opt stack 0
   538  00000B                     ___altofl@c:
   539                           	opt stack 0
   540  00000B                     ___lltofl@c:
   541                           	opt stack 0
   542                           
   543                           ; 4 bytes @ 0xA
   544  00000B                     	ds	1
   545  00000C                     ___awdiv@sign:
   546                           	opt stack 0
   547  00000C                     __tdiv_to_l_@quot:
   548                           	opt stack 0
   549                           
   550                           ; 4 bytes @ 0xB
   551  00000C                     	ds	1
   552  00000D                     __div_to_l_@cntr:
   553                           	opt stack 0
   554  00000D                     ___lldiv@counter:
   555                           	opt stack 0
   556  00000D                     ___awdiv@quotient:
   557                           	opt stack 0
   558                           
   559                           ; 2 bytes @ 0xC
   560  00000D                     	ds	1
   561  00000E                     ?___llmod:
   562                           	opt stack 0
   563  00000E                     __div_to_l_@exp1:
   564                           	opt stack 0
   565  00000E                     ___llmod@dividend:
   566                           	opt stack 0
   567                           
   568                           ; 4 bytes @ 0xD
   569  00000E                     	ds	1
   570  00000F                     ?___flmul:
   571                           	opt stack 0
   572  00000F                     ___altofl@sign:
   573                           	opt stack 0
   574  00000F                     ___flmul@f1:
   575                           	opt stack 0
   576                           
   577                           ; 4 bytes @ 0xE
   578  00000F                     	ds	1
   579  000010                     __tdiv_to_l_@cntr:
   580                           	opt stack 0
   581                           
   582                           ; 1 bytes @ 0xF
   583  000010                     	ds	1
   584  000011                     __tdiv_to_l_@exp1:
   585                           	opt stack 0
   586                           
   587                           ; 1 bytes @ 0x10
   588  000011                     	ds	1
   589  000012                     ___llmod@divisor:
   590                           	opt stack 0
   591                           
   592                           ; 4 bytes @ 0x11
   593  000012                     	ds	1
   594  000013                     ___flmul@f2:
   595                           	opt stack 0
   596                           
   597                           ; 4 bytes @ 0x12
   598  000013                     	ds	3
   599  000016                     ___llmod@counter:
   600                           	opt stack 0
   601                           
   602                           ; 1 bytes @ 0x15
   603  000016                     	ds	1
   604  000017                     ___flmul@exp:
   605                           	opt stack 0
   606                           
   607                           ; 1 bytes @ 0x16
   608  000017                     	ds	1
   609  000018                     ___flmul@f3_as_product:
   610                           	opt stack 0
   611                           
   612                           ; 4 bytes @ 0x17
   613  000018                     	ds	4
   614  00001C                     ___flmul@cntr:
   615                           	opt stack 0
   616                           
   617                           ; 1 bytes @ 0x1B
   618  00001C                     	ds	1
   619  00001D                     ___flmul@sign:
   620                           	opt stack 0
   621                           
   622                           ; 1 bytes @ 0x1C
   623  00001D                     	ds	1
   624  00001E                     ?_fround:
   625                           	opt stack 0
   626  00001E                     ?_scale:
   627                           	opt stack 0
   628                           
   629                           ; 4 bytes @ 0x1D
   630  00001E                     	ds	4
   631  000022                     ??_fround:
   632  000022                     _scale$1442:
   633                           	opt stack 0
   634                           
   635                           ; 4 bytes @ 0x21
   636  000022                     	ds	4
   637  000026                     scale@scl:
   638                           	opt stack 0
   639  000026                     _fround$1441:
   640                           	opt stack 0
   641                           
   642                           ; 4 bytes @ 0x25
   643  000026                     	ds	1
   644  000027                     ?___fltol:
   645                           	opt stack 0
   646  000027                     ___fltol@f1:
   647                           	opt stack 0
   648                           
   649                           ; 4 bytes @ 0x26
   650  000027                     	ds	3
   651  00002A                     _fround$1440:
   652                           	opt stack 0
   653                           
   654                           ; 4 bytes @ 0x29
   655  00002A                     	ds	1
   656  00002B                     ??___fltol:
   657                           
   658                           ; 0 bytes @ 0x2A
   659  00002B                     	ds	3
   660  00002E                     fround@prec:
   661                           	opt stack 0
   662                           
   663                           ; 1 bytes @ 0x2D
   664  00002E                     	ds	1
   665  00002F                     ?___fladd:
   666                           	opt stack 0
   667  00002F                     ___fltol@sign1:
   668                           	opt stack 0
   669  00002F                     ___fladd@f1:
   670                           	opt stack 0
   671                           
   672                           ; 4 bytes @ 0x2E
   673  00002F                     	ds	1
   674  000030                     ___fltol@exp1:
   675                           	opt stack 0
   676                           
   677                           ; 1 bytes @ 0x2F
   678  000030                     	ds	3
   679  000033                     ___fladd@f2:
   680                           	opt stack 0
   681                           
   682                           ; 4 bytes @ 0x32
   683  000033                     	ds	4
   684  000037                     ??___fladd:
   685                           
   686                           ; 0 bytes @ 0x36
   687  000037                     	ds	1
   688  000038                     ___fladd@sign:
   689                           	opt stack 0
   690                           
   691                           ; 1 bytes @ 0x37
   692  000038                     	ds	1
   693  000039                     ___fladd@exp2:
   694                           	opt stack 0
   695                           
   696                           ; 1 bytes @ 0x38
   697  000039                     	ds	1
   698  00003A                     ___fladd@exp1:
   699                           	opt stack 0
   700                           
   701                           ; 1 bytes @ 0x39
   702  00003A                     	ds	1
   703  00003B                     ?___fldiv:
   704                           	opt stack 0
   705  00003B                     ?___flsub:
   706                           	opt stack 0
   707  00003B                     ___fldiv@f1:
   708                           	opt stack 0
   709  00003B                     ___flsub@f1:
   710                           	opt stack 0
   711                           
   712                           ; 4 bytes @ 0x3A
   713  00003B                     	ds	4
   714  00003F                     ___fldiv@f2:
   715                           	opt stack 0
   716  00003F                     ___flsub@f2:
   717                           	opt stack 0
   718                           
   719                           ; 4 bytes @ 0x3E
   720  00003F                     	ds	4
   721  000043                     ___fldiv@f3:
   722                           	opt stack 0
   723                           
   724                           ; 4 bytes @ 0x42
   725  000043                     	ds	4
   726  000047                     ___fldiv@cntr:
   727                           	opt stack 0
   728                           
   729                           ; 1 bytes @ 0x46
   730  000047                     	ds	1
   731  000048                     ___fldiv@exp:
   732                           	opt stack 0
   733                           
   734                           ; 1 bytes @ 0x47
   735  000048                     	ds	1
   736  000049                     ___fldiv@sign:
   737                           	opt stack 0
   738                           
   739                           ; 1 bytes @ 0x48
   740  000049                     	ds	1
   741  00004A                     ?_ES15007_ReadTemp:
   742                           	opt stack 0
   743  00004A                     ?_ES15007_ReadPress:
   744                           	opt stack 0
   745                           
   746                           ; 4 bytes @ 0x49
   747  00004A                     	ds	4
   748  00004E                     ??_ES15007_ReadPress:
   749  00004E                     ES15007_ReadTemp@temp:
   750                           	opt stack 0
   751                           
   752                           ; 4 bytes @ 0x4D
   753  00004E                     	ds	4
   754  000052                     ES15007_ReadTemp@qzd_temp_lo:
   755                           	opt stack 0
   756  000052                     ES15007_ReadPress@press:
   757                           	opt stack 0
   758                           
   759                           ; 4 bytes @ 0x51
   760  000052                     	ds	2
   761  000054                     ES15007_ReadTemp@qzd_temp_hi:
   762                           	opt stack 0
   763                           
   764                           ; 2 bytes @ 0x53
   765  000054                     	ds	2
   766  000056                     ES15007_ReadPress@qzd_press_lo:
   767                           	opt stack 0
   768                           
   769                           ; 2 bytes @ 0x55
   770  000056                     	ds	2
   771  000058                     ES15007_ReadPress@qzd_press_hi:
   772                           	opt stack 0
   773                           
   774                           ; 2 bytes @ 0x57
   775  000058                     	ds	2
   776  00005A                     ?_sprintf:
   777                           	opt stack 0
   778  00005A                     sprintf@f:
   779                           	opt stack 0
   780                           
   781                           ; 2 bytes @ 0x59
   782  00005A                     	ds	6
   783  000060                     ??_sprintf:
   784                           
   785                           ; 0 bytes @ 0x5F
   786  000060                     	ds	4
   787  000064                     _sprintf$1443:
   788                           	opt stack 0
   789                           
   790                           ; 4 bytes @ 0x63
   791  000064                     	ds	4
   792  000068                     sprintf@ap:
   793                           	opt stack 0
   794                           
   795                           ; 1 bytes @ 0x67
   796  000068                     	ds	1
   797  000069                     sprintf@tmpval:
   798                           	opt stack 0
   799                           
   800                           ; 4 bytes @ 0x68
   801  000069                     	ds	4
   802  00006D                     sprintf@val:
   803                           	opt stack 0
   804                           
   805                           ; 4 bytes @ 0x6C
   806  00006D                     	ds	4
   807  000071                     sprintf@exp:
   808                           	opt stack 0
   809                           
   810                           ; 2 bytes @ 0x70
   811  000071                     	ds	2
   812  000073                     sprintf@flag:
   813                           	opt stack 0
   814                           
   815                           ; 2 bytes @ 0x72
   816  000073                     	ds	2
   817  000075                     sprintf@width:
   818                           	opt stack 0
   819                           
   820                           ; 2 bytes @ 0x74
   821  000075                     	ds	2
   822  000077                     sprintf@fval:
   823                           	opt stack 0
   824                           
   825                           ; 4 bytes @ 0x76
   826  000077                     	ds	4
   827  00007B                     sprintf@prec:
   828                           	opt stack 0
   829                           
   830                           ; 2 bytes @ 0x7A
   831  00007B                     	ds	2
   832  00007D                     sprintf@sp:
   833                           	opt stack 0
   834                           
   835                           ; 1 bytes @ 0x7C
   836  00007D                     	ds	1
   837  00007E                     sprintf@c:
   838                           	opt stack 0
   839                           
   840                           ; 1 bytes @ 0x7D
   841  00007E                     	ds	1
   842  00007F                     ??_main:
   843                           
   844                           ; 0 bytes @ 0x7E
   845  00007F                     	ds	1
   846                           tblptru	equ	0xFF8
   847                           tblptrh	equ	0xFF7
   848                           tblptrl	equ	0xFF6
   849                           tablat	equ	0xFF5
   850                           prodh	equ	0xFF4
   851                           prodl	equ	0xFF3
   852                           indf0	equ	0xFEF
   853                           fsr0h	equ	0xFEA
   854                           fsr0l	equ	0xFE9
   855                           wreg	equ	0xFE8
   856                           indf2	equ	0xFDF
   857                           postinc2	equ	0xFDE
   858                           postdec2	equ	0xFDD
   859                           fsr2h	equ	0xFDA
   860                           fsr2l	equ	0xFD9
   861                           status	equ	0xFD8
   862                           
   863 ;;
   864 ;;Main: autosize = 0, tempsize = 1, incstack = 0, save=0
   865 ;;
   866 ;; *************** function _main *****************
   867 ;; Defined at:
   868 ;;		line 15 in file "main.c"
   869 ;; Parameters:    Size  Location     Type
   870 ;;		None
   871 ;; Auto vars:     Size  Location     Type
   872 ;;  aux            20    0[BANK0 ] unsigned char [20]
   873 ;;  temperaturee    4    0        float 
   874 ;;  qzd_temp_hi     2    0        struct .
   875 ;;  qzd_temp_lo     2    0        struct .
   876 ;;  serialn         2    0        unsigned int 
   877 ;; Return value:  Size  Location     Type
   878 ;;		None               void
   879 ;; Registers used:
   880 ;;		wreg, fsr0l, fsr0h, fsr2l, fsr2h, status,2, status,0, tblptrl, tblptrh, tblptru, prodl, prodh, cstack
   881 ;; Tracked objects:
   882 ;;		On entry : 0/0
   883 ;;		On exit  : 0/0
   884 ;;		Unchanged: 0/0
   885 ;; Data sizes:     COMRAM   BANK0   BANK1   BANK2   BANK3   BANK4   BANK5
   886 ;;      Params:         0       0       0       0       0       0       0
   887 ;;      Locals:         0      20       0       0       0       0       0
   888 ;;      Temps:          1       0       0       0       0       0       0
   889 ;;      Totals:         1      20       0       0       0       0       0
   890 ;;Total ram usage:       21 bytes
   891 ;; Hardware stack levels required when called:    4
   892 ;; This function calls:
   893 ;;		_Delay_ms
   894 ;;		_ES15007_Get_Serial
   895 ;;		_ES15007_Get_Status
   896 ;;		_ES15007_ReadPress
   897 ;;		_ES15007_ReadTemp
   898 ;;		_I2C_Close
   899 ;;		_I2C_Init
   900 ;;		_putrsserial
   901 ;;		_sprintf
   902 ;; This function is called by:
   903 ;;		Startup code after reset
   904 ;; This function uses a non-reentrant model
   905 ;;
   906                           
   907                           	psect	text0
   908  007054                     __ptext0:
   909                           	opt stack 0
   910  007054                     _main:
   911                           	opt stack 27
   912                           
   913                           ;main.c: 21: union
   914                           ;main.c: 22: {
   915                           ;main.c: 23: uint16_t temperature_16;
   916                           ;main.c: 24: uint8_t temperature_databyte[2];
   917                           ;main.c: 25: }qzd_temp_lo;
   918                           ;main.c: 26: union
   919                           ;main.c: 27: {
   920                           ;main.c: 28: uint16_t temperature_16;
   921                           ;main.c: 29: uint8_t temperature_databyte[2];
   922                           ;main.c: 30: }qzd_temp_hi;
   923                           ;main.c: 32: OSCCON = 0b01110010;
   924                           
   925                           ;incstack = 0
   926  007054  0E72               	movlw	114
   927  007056  6ED3               	movwf	4051,c	;volatile
   928                           
   929                           ;main.c: 34: ADCON1 = 0b00001111;
   930  007058  0E0F               	movlw	15
   931  00705A  6EC1               	movwf	4033,c	;volatile
   932                           
   933                           ;main.c: 35: CMCON = 0b00000111;
   934  00705C  0E07               	movlw	7
   935  00705E  6EB4               	movwf	4020,c	;volatile
   936                           
   937                           ;main.c: 37: TRISA = 0b00000000;
   938  007060  6A92               	clrf	3986,c	;volatile
   939                           
   940                           ;main.c: 38: TRISB = 0b11111111;
   941  007062  6893               	setf	3987,c	;volatile
   942                           
   943                           ;main.c: 39: TRISC = 0b10111001;
   944  007064  0EB9               	movlw	185
   945  007066  6E94               	movwf	3988,c	;volatile
   946                           
   947                           ;main.c: 42: TXSTA = 0b00100110;
   948  007068  0E26               	movlw	38
   949  00706A  6EAC               	movwf	4012,c	;volatile
   950                           
   951                           ;main.c: 43: RCSTA = 0b10010000;
   952  00706C  0E90               	movlw	144
   953  00706E  6EAB               	movwf	4011,c	;volatile
   954                           
   955                           ;main.c: 44: BAUDCON = 0b00001010;
   956  007070  0E0A               	movlw	10
   957  007072  6EB8               	movwf	4024,c	;volatile
   958                           
   959                           ;main.c: 45: SPBRG = 16;
   960  007074  0E10               	movlw	16
   961  007076  6EAF               	movwf	4015,c	;volatile
   962                           
   963                           ;main.c: 49: I2C_Close();
   964  007078  EC6F  F032         	call	_I2C_Close	;wreg free
   965                           
   966                           ;main.c: 51: I2C_Init(19);
   967  00707C  0E13               	movlw	19
   968  00707E  EC98  F032         	call	_I2C_Init
   969                           
   970                           ;main.c: 55: _delay((unsigned long)((50)*(8000000/4000.0)));
   971  007082  0E82               	movlw	130
   972  007084  6E7F               	movwf	??_main& (0+255),c
   973  007086  0EDE               	movlw	222
   974  007088                     u3377:
   975  007088  2EE8               	decfsz	wreg,f,c
   976  00708A  D7FE               	goto	u3377
   977  00708C  2E7F               	decfsz	??_main& (0+255),f,c
   978  00708E  D7FC               	goto	u3377
   979                           
   980                           ;main.c: 57: putrsserial("OpenField sensor tester\n");
   981  007090  0EB3               	movlw	low STR_1
   982  007092  6E02               	movwf	putrsserial@data,c
   983  007094  0E7F               	movlw	high STR_1
   984  007096  6E03               	movwf	putrsserial@data+1,c
   985  007098  EC13  F034         	call	_putrsserial	;wreg free
   986                           
   987                           ;main.c: 58: putrsserial("PUC-Rio LSFO\n");
   988  00709C  0EF0               	movlw	low STR_2
   989  00709E  6E02               	movwf	putrsserial@data,c
   990  0070A0  0E7F               	movlw	high STR_2
   991  0070A2  6E03               	movwf	putrsserial@data+1,c
   992  0070A4  EC13  F034         	call	_putrsserial	;wreg free
   993  0070A8                     l3189:
   994                           
   995                           ;main.c: 61: {
   996                           ;main.c: 62: sprintf(aux, "Serial:      %6i\n", ES15007_Get_Serial());
   997  0070A8  0EDE               	movlw	low STR_3
   998  0070AA  6E5A               	movwf	sprintf@f,c
   999  0070AC  0E7F               	movlw	high STR_3
  1000  0070AE  6E5B               	movwf	sprintf@f+1,c
  1001  0070B0  EC6C  F033         	call	_ES15007_Get_Serial	;wreg free
  1002  0070B4  C004  F05C         	movff	?_ES15007_Get_Serial,?_sprintf+2
  1003  0070B8  C005  F05D         	movff	?_ES15007_Get_Serial+1,?_sprintf+3
  1004  0070BC  0E80               	movlw	main@aux& (0+255)
  1005  0070BE  EC59  F03B         	call	_sprintf
  1006                           
  1007                           ;main.c: 63: putrsserial(aux);
  1008  0070C2  0E80               	movlw	low main@aux
  1009  0070C4  6E02               	movwf	putrsserial@data,c
  1010  0070C6  6A03               	clrf	putrsserial@data+1,c
  1011  0070C8  EC13  F034         	call	_putrsserial	;wreg free
  1012                           
  1013                           ;main.c: 64: sprintf(aux, "Status:      %4i\n", ES15007_Get_Status());
  1014  0070CC  0ECC               	movlw	low STR_4
  1015  0070CE  6E5A               	movwf	sprintf@f,c
  1016  0070D0  0E7F               	movlw	high STR_4
  1017  0070D2  6E5B               	movwf	sprintf@f+1,c
  1018  0070D4  EC11  F033         	call	_ES15007_Get_Status	;wreg free
  1019  0070D8  6E5C               	movwf	?_sprintf+2,c
  1020  0070DA  6A5D               	clrf	?_sprintf+3,c
  1021  0070DC  0E80               	movlw	main@aux& (0+255)
  1022  0070DE  EC59  F03B         	call	_sprintf
  1023                           
  1024                           ;main.c: 65: putrsserial(aux);
  1025  0070E2  0E80               	movlw	low main@aux
  1026  0070E4  6E02               	movwf	putrsserial@data,c
  1027  0070E6  6A03               	clrf	putrsserial@data+1,c
  1028  0070E8  EC13  F034         	call	_putrsserial	;wreg free
  1029                           
  1030                           ;main.c: 66: sprintf(aux, "Temperature: %010.5f C\n", ES15007_ReadTemp());
  1031  0070EC  0E9A               	movlw	low STR_5
  1032  0070EE  6E5A               	movwf	sprintf@f,c
  1033  0070F0  0E7F               	movlw	high STR_5
  1034  0070F2  6E5B               	movwf	sprintf@f+1,c
  1035  0070F4  ECAD  F037         	call	_ES15007_ReadTemp	;wreg free
  1036  0070F8  C04A  F05C         	movff	?_ES15007_ReadTemp,?_sprintf+2
  1037  0070FC  C04B  F05D         	movff	?_ES15007_ReadTemp+1,?_sprintf+3
  1038  007100  C04C  F05E         	movff	?_ES15007_ReadTemp+2,?_sprintf+4
  1039  007104  C04D  F05F         	movff	?_ES15007_ReadTemp+3,?_sprintf+5
  1040  007108  0E80               	movlw	main@aux& (0+255)
  1041  00710A  EC59  F03B         	call	_sprintf
  1042                           
  1043                           ;main.c: 67: putrsserial(aux);
  1044  00710E  0E80               	movlw	low main@aux
  1045  007110  6E02               	movwf	putrsserial@data,c
  1046  007112  6A03               	clrf	putrsserial@data+1,c
  1047  007114  EC13  F034         	call	_putrsserial	;wreg free
  1048                           
  1049                           ;main.c: 68: sprintf(aux, "Pressure:    %010.5f Psi\n\n", ES15007_ReadPress());
  1050  007118  0E7F               	movlw	low STR_6
  1051  00711A  6E5A               	movwf	sprintf@f,c
  1052  00711C  0E7F               	movlw	high STR_6
  1053  00711E  6E5B               	movwf	sprintf@f+1,c
  1054  007120  EC43  F037         	call	_ES15007_ReadPress	;wreg free
  1055  007124  C04A  F05C         	movff	?_ES15007_ReadPress,?_sprintf+2
  1056  007128  C04B  F05D         	movff	?_ES15007_ReadPress+1,?_sprintf+3
  1057  00712C  C04C  F05E         	movff	?_ES15007_ReadPress+2,?_sprintf+4
  1058  007130  C04D  F05F         	movff	?_ES15007_ReadPress+3,?_sprintf+5
  1059  007134  0E80               	movlw	main@aux& (0+255)
  1060  007136  EC59  F03B         	call	_sprintf
  1061                           
  1062                           ;main.c: 69: putrsserial(aux);
  1063  00713A  0E80               	movlw	low main@aux
  1064  00713C  6E02               	movwf	putrsserial@data,c
  1065  00713E  6A03               	clrf	putrsserial@data+1,c
  1066  007140  EC13  F034         	call	_putrsserial	;wreg free
  1067                           
  1068                           ;main.c: 70: Delay_ms(500);
  1069  007144  0E01               	movlw	1
  1070  007146  6E02               	movwf	Delay_ms@count+1,c
  1071  007148  0EF4               	movlw	244
  1072  00714A  6E01               	movwf	Delay_ms@count,c
  1073  00714C  ECC3  F032         	call	_Delay_ms	;wreg free
  1074  007150  D7AB               	goto	l3189
  1075  007152                     __end_of_main:
  1076                           	opt stack 0
  1077                           tblptru	equ	0xFF8
  1078                           tblptrh	equ	0xFF7
  1079                           tblptrl	equ	0xFF6
  1080                           tablat	equ	0xFF5
  1081                           prodh	equ	0xFF4
  1082                           prodl	equ	0xFF3
  1083                           indf0	equ	0xFEF
  1084                           fsr0h	equ	0xFEA
  1085                           fsr0l	equ	0xFE9
  1086                           wreg	equ	0xFE8
  1087                           indf2	equ	0xFDF
  1088                           postinc2	equ	0xFDE
  1089                           postdec2	equ	0xFDD
  1090                           fsr2h	equ	0xFDA
  1091                           fsr2l	equ	0xFD9
  1092                           status	equ	0xFD8
  1093                           
  1094 ;; *************** function _sprintf *****************
  1095 ;; Defined at:
  1096 ;;		line 492 in file "C:\Program Files (x86)\Microchip\xc8\v1.34\sources\common\doprnt.c"
  1097 ;; Parameters:    Size  Location     Type
  1098 ;;  sp              1    wreg     PTR unsigned char 
  1099 ;;		 -> main@aux(20), 
  1100 ;;  f               2   89[COMRAM] PTR const unsigned char 
  1101 ;;		 -> STR_6(27), STR_5(25), STR_4(18), STR_3(18), 
  1102 ;; Auto vars:     Size  Location     Type
  1103 ;;  sp              1  124[COMRAM] PTR unsigned char 
  1104 ;;		 -> main@aux(20), 
  1105 ;;  fval            4  118[COMRAM] PTR unsigned char 
  1106 ;;  val             4  108[COMRAM] unsigned long 
  1107 ;;  tmpval          4  104[COMRAM] struct .
  1108 ;;  cp              3    0        PTR const unsigned char 
  1109 ;;  prec            2  122[COMRAM] int 
  1110 ;;  width           2  116[COMRAM] int 
  1111 ;;  flag            2  114[COMRAM] unsigned short 
  1112 ;;  exp             2  112[COMRAM] int 
  1113 ;;  len             2    0        unsigned int 
  1114 ;;  c               1  125[COMRAM] char 
  1115 ;;  ap              1  103[COMRAM] PTR void [1]
  1116 ;;		 -> ?_sprintf(2), 
  1117 ;;  d               1    0        unsigned char 
  1118 ;; Return value:  Size  Location     Type
  1119 ;;                  2   89[COMRAM] int 
  1120 ;; Registers used:
  1121 ;;		wreg, fsr2l, fsr2h, status,2, status,0, tblptrl, tblptrh, tblptru, prodl, prodh, cstack
  1122 ;; Tracked objects:
  1123 ;;		On entry : 0/0
  1124 ;;		On exit  : 0/0
  1125 ;;		Unchanged: 0/0
  1126 ;; Data sizes:     COMRAM   BANK0   BANK1   BANK2   BANK3   BANK4   BANK5
  1127 ;;      Params:         6       0       0       0       0       0       0
  1128 ;;      Locals:        27       0       0       0       0       0       0
  1129 ;;      Temps:          4       0       0       0       0       0       0
  1130 ;;      Totals:        37       0       0       0       0       0       0
  1131 ;;Total ram usage:       37 bytes
  1132 ;; Hardware stack levels used:    1
  1133 ;; Hardware stack levels required when called:    3
  1134 ;; This function calls:
  1135 ;;		___awdiv
  1136 ;;		___fladd
  1137 ;;		___flge
  1138 ;;		___flmul
  1139 ;;		___flneg
  1140 ;;		___flsub
  1141 ;;		___fltol
  1142 ;;		___lldiv
  1143 ;;		___llmod
  1144 ;;		___lltofl
  1145 ;;		___wmul
  1146 ;;		__div_to_l_
  1147 ;;		__tdiv_to_l_
  1148 ;;		_fround
  1149 ;;		_isdigit
  1150 ;;		_scale
  1151 ;; This function is called by:
  1152 ;;		_main
  1153 ;; This function uses a non-reentrant model
  1154 ;;
  1155                           
  1156                           	psect	text1
  1157  0076B2                     __ptext1:
  1158                           	opt stack 0
  1159  0076B2                     _sprintf:
  1160                           	opt stack 27
  1161                           
  1162                           ;incstack = 0
  1163                           ;sprintf@sp stored from wreg
  1164  0076B2  6E7D               	movwf	sprintf@sp,c
  1165                           
  1166                           ;doprnt.c: 494: va_list ap;
  1167                           ;doprnt.c: 499: signed char c;
  1168                           ;doprnt.c: 501: int width;
  1169                           ;doprnt.c: 504: int prec;
  1170                           ;doprnt.c: 508: unsigned short flag;
  1171                           ;doprnt.c: 515: char d;
  1172                           ;doprnt.c: 516: double fval;
  1173                           ;doprnt.c: 517: int exp;
  1174                           ;doprnt.c: 523: union {
  1175                           ;doprnt.c: 524: unsigned long vd;
  1176                           ;doprnt.c: 525: double integ;
  1177                           ;doprnt.c: 526: } tmpval;
  1178                           ;doprnt.c: 528: unsigned long val;
  1179                           ;doprnt.c: 529: unsigned len;
  1180                           ;doprnt.c: 530: const char * cp;
  1181                           ;doprnt.c: 533: *ap = __va_start();
  1182  0076B4  0E5C               	movlw	low (?_sprintf+2)
  1183  0076B6  6E68               	movwf	sprintf@ap,c
  1184                           
  1185                           ;doprnt.c: 536: while(c = *f++) {
  1186  0076B8  D399               	goto	l3143
  1187  0076BA                     l2829:
  1188                           
  1189                           ;doprnt.c: 538: if(c != '%')
  1190  0076BA  0E25               	movlw	37
  1191  0076BC  187E               	xorwf	sprintf@c,w,c
  1192  0076BE  E007               	bz	l302
  1193                           
  1194                           ;doprnt.c: 540: {
  1195                           ;doprnt.c: 541: ((*sp++ = (c)));
  1196  0076C0  507D               	movf	sprintf@sp,w,c
  1197  0076C2  6ED9               	movwf	fsr2l,c
  1198  0076C4  6ADA               	clrf	fsr2h,c
  1199  0076C6  C07E  FFDF         	movff	sprintf@c,indf2
  1200  0076CA  2A7D               	incf	sprintf@sp,f,c
  1201                           
  1202                           ;doprnt.c: 542: continue;
  1203  0076CC  D38F               	goto	l3143
  1204  0076CE                     l302:
  1205                           
  1206                           ;doprnt.c: 543: }
  1207                           ;doprnt.c: 546: width = 0;
  1208  0076CE  6A75               	clrf	sprintf@width,c
  1209  0076D0  6A76               	clrf	sprintf@width+1,c
  1210                           
  1211                           ;doprnt.c: 548: flag = 0;
  1212  0076D2  6A73               	clrf	sprintf@flag,c
  1213  0076D4  6A74               	clrf	sprintf@flag+1,c
  1214  0076D6  D003               	goto	l2839
  1215  0076D8                     l2835:
  1216                           
  1217                           ;doprnt.c: 580: flag |= 0x04;
  1218  0076D8  8473               	bsf	sprintf@flag,2,c
  1219                           
  1220                           ;doprnt.c: 581: f++;
  1221  0076DA  4A5A               	infsnz	sprintf@f,f,c
  1222  0076DC  2A5B               	incf	sprintf@f+1,f,c
  1223  0076DE                     l2839:
  1224  0076DE  DB9A               	call	PL12	;call to abstracted procedure
  1225                           
  1226                           ; Switch size 1, requested type "space"
  1227                           ; Number of cases is 1, Range of values is 48 to 48
  1228                           ; switch strategies available:
  1229                           ; Name         Instructions Cycles
  1230                           ; simple_byte            4     3 (average)
  1231                           ;	Chosen strategy is simple_byte
  1232  0076E0  0A30               	xorlw	48	; case 48
  1233  0076E2  E0FA               	bz	l2835
  1234                           
  1235                           ;doprnt.c: 597: if(isdigit((unsigned)*f)) {
  1236  0076E4  DB97               	call	PL12	;call to abstracted procedure
  1237  0076E6  ECA5  F032         	call	_isdigit
  1238  0076EA  E323               	bnc	l2853
  1239                           
  1240                           ;doprnt.c: 598: width = 0;
  1241  0076EC  6A75               	clrf	sprintf@width,c
  1242  0076EE  6A76               	clrf	sprintf@width+1,c
  1243  0076F0                     l2845:
  1244                           
  1245                           ;doprnt.c: 600: width *= 10;
  1246  0076F0  C075  F001         	movff	sprintf@width,___wmul@multiplier
  1247  0076F4  C076  F002         	movff	sprintf@width+1,___wmul@multiplier+1
  1248  0076F8  6A04               	clrf	___wmul@multiplicand+1,c
  1249  0076FA  0E0A               	movlw	10
  1250  0076FC  6E03               	movwf	___wmul@multiplicand,c
  1251  0076FE  ECD6  F032         	call	___wmul	;wreg free
  1252  007702  C001  F075         	movff	?___wmul,sprintf@width
  1253  007706  C002  F076         	movff	?___wmul+1,sprintf@width+1
  1254                           
  1255                           ;doprnt.c: 601: width += *f++ - '0';
  1256  00770A  0ED0               	movlw	208
  1257  00770C  6E60               	movwf	??_sprintf& (0+255),c
  1258  00770E  6861               	setf	(??_sprintf+1)& (0+255),c
  1259  007710  DB81               	call	PL12	;call to abstracted procedure
  1260  007712  6E62               	movwf	(??_sprintf+2)& (0+255),c
  1261  007714  6A63               	clrf	(??_sprintf+3)& (0+255),c
  1262  007716  5060               	movf	??_sprintf,w,c
  1263  007718  2662               	addwf	??_sprintf+2,f,c
  1264  00771A  5061               	movf	??_sprintf+1,w,c
  1265  00771C  2263               	addwfc	??_sprintf+3,f,c
  1266  00771E  5062               	movf	??_sprintf+2,w,c
  1267  007720  2675               	addwf	sprintf@width,f,c
  1268  007722  5063               	movf	??_sprintf+3,w,c
  1269  007724  2276               	addwfc	sprintf@width+1,f,c
  1270  007726  4A5A               	infsnz	sprintf@f,f,c
  1271  007728  2A5B               	incf	sprintf@f+1,f,c
  1272                           
  1273                           ;doprnt.c: 602: } while(isdigit((unsigned)*f));
  1274  00772A  DB74               	call	PL12	;call to abstracted procedure
  1275  00772C  ECA5  F032         	call	_isdigit
  1276  007730  E2DF               	bc	l2845
  1277  007732                     l2853:
  1278                           
  1279                           ;doprnt.c: 608: }
  1280                           ;doprnt.c: 611: if(*f == '.') {
  1281  007732  DB70               	call	PL12	;call to abstracted procedure
  1282  007734  0A2E               	xorlw	46
  1283  007736  E120               	bnz	l312
  1284                           
  1285                           ;doprnt.c: 612: flag |= 0x4000;
  1286  007738  8C74               	bsf	sprintf@flag+1,6,c
  1287                           
  1288                           ;doprnt.c: 613: f++;
  1289  00773A  4A5A               	infsnz	sprintf@f,f,c
  1290  00773C  2A5B               	incf	sprintf@f+1,f,c
  1291                           
  1292                           ;doprnt.c: 620: {
  1293                           ;doprnt.c: 621: prec = 0;
  1294  00773E  6A7B               	clrf	sprintf@prec,c
  1295  007740  6A7C               	clrf	sprintf@prec+1,c
  1296                           
  1297                           ;doprnt.c: 622: while(isdigit((unsigned)*f))
  1298  007742  D015               	goto	l2863
  1299  007744                     l2859:
  1300                           
  1301                           ;doprnt.c: 623: prec = prec*10 + *f++ - '0';
  1302  007744  C07B  F001         	movff	sprintf@prec,___wmul@multiplier
  1303  007748  C07C  F002         	movff	sprintf@prec+1,___wmul@multiplier+1
  1304  00774C  6A04               	clrf	___wmul@multiplicand+1,c
  1305  00774E  0E0A               	movlw	10
  1306  007750  6E03               	movwf	___wmul@multiplicand,c
  1307  007752  ECD6  F032         	call	___wmul	;wreg free
  1308  007756  DB5E               	call	PL12	;call to abstracted procedure
  1309  007758  2601               	addwf	?___wmul,f,c
  1310  00775A  0E00               	movlw	0
  1311  00775C  2202               	addwfc	?___wmul+1,f,c
  1312  00775E  0ED0               	movlw	208
  1313  007760  2401               	addwf	?___wmul,w,c
  1314  007762  6E7B               	movwf	sprintf@prec,c
  1315  007764  0EFF               	movlw	255
  1316  007766  2002               	addwfc	?___wmul+1,w,c
  1317  007768  6E7C               	movwf	sprintf@prec+1,c
  1318  00776A  4A5A               	infsnz	sprintf@f,f,c
  1319  00776C  2A5B               	incf	sprintf@f+1,f,c
  1320  00776E                     l2863:
  1321  00776E  DB52               	call	PL12	;call to abstracted procedure
  1322  007770  ECA5  F032         	call	_isdigit
  1323  007774  E307               	bnc	l2871
  1324  007776  D7E6               	goto	l2859
  1325  007778                     l312:
  1326                           
  1327                           ;doprnt.c: 626: prec = 0;
  1328  007778  6A7B               	clrf	sprintf@prec,c
  1329  00777A  6A7C               	clrf	sprintf@prec+1,c
  1330                           
  1331                           ;doprnt.c: 628: flag |= 0x1000;
  1332  00777C  8874               	bsf	sprintf@flag+1,4,c
  1333  00777E  D002               	goto	l2871
  1334  007780                     l2867:
  1335                           
  1336                           ;doprnt.c: 663: flag |= 0x400;
  1337  007780  8474               	bsf	sprintf@flag+1,2,c
  1338                           
  1339                           ;doprnt.c: 664: break;
  1340  007782  D00C               	goto	l2873
  1341  007784                     l2871:
  1342  007784  C05A  FFF6         	movff	sprintf@f,tblptrl
  1343  007788  DB9A               	call	PL42	;call to abstracted procedure
  1344                           
  1345                           ; Switch size 1, requested type "space"
  1346                           ; Number of cases is 4, Range of values is 0 to 105
  1347                           ; switch strategies available:
  1348                           ; Name         Instructions Cycles
  1349                           ; simple_byte           13     7 (average)
  1350                           ;	Chosen strategy is simple_byte
  1351  00778A  E101 D334          	bz	l3145
  1352  00778E  0A64               	xorlw	100	; case 100
  1353  007790  E005               	bz	l2873
  1354  007792  0A02               	xorlw	2	; case 102
  1355  007794  E0F5               	bz	l2867
  1356  007796  0A0F               	xorlw	15	; case 105
  1357  007798  E001 D328          	bnz	l3143
  1358  00779C                     l2873:
  1359                           
  1360                           ;doprnt.c: 825: if(flag & (0x700)) {
  1361  00779C  0E07               	movlw	7
  1362  00779E  1474               	andwf	sprintf@flag+1,w,c
  1363  0077A0  E101 D24B          	bz	l3053
  1364                           
  1365                           ;doprnt.c: 827: if(flag & 0x1000)
  1366  0077A4  A874               	btfss	sprintf@flag+1,4,c
  1367  0077A6  D003               	goto	l2879
  1368                           
  1369                           ;doprnt.c: 829: prec = 6;
  1370  0077A8  6A7C               	clrf	sprintf@prec+1,c
  1371  0077AA  0E06               	movlw	6
  1372  0077AC  6E7B               	movwf	sprintf@prec,c
  1373  0077AE                     l2879:
  1374                           
  1375                           ;doprnt.c: 830: fval = (*(double *)__va_arg((*(double **)ap), (double)0));
  1376  0077AE  5068               	movf	sprintf@ap,w,c
  1377  0077B0  6ED9               	movwf	fsr2l,c
  1378  0077B2  6ADA               	clrf	fsr2h,c
  1379  0077B4  CFDE F077          	movff	postinc2,sprintf@fval
  1380  0077B8  CFDE F078          	movff	postinc2,sprintf@fval+1
  1381  0077BC  CFDE F079          	movff	postinc2,sprintf@fval+2
  1382  0077C0  CFDE F07A          	movff	postinc2,sprintf@fval+3
  1383  0077C4  0E04               	movlw	4
  1384  0077C6  2668               	addwf	sprintf@ap,f,c
  1385                           
  1386                           ;doprnt.c: 831: if(fval < 0.0) {
  1387  0077C8  AE7A               	btfss	sprintf@fval+3,7,c
  1388  0077CA  D014               	goto	l2889
  1389                           
  1390                           ;doprnt.c: 832: fval = -fval;
  1391  0077CC  C077  F001         	movff	sprintf@fval,___flneg@f1
  1392  0077D0  C078  F002         	movff	sprintf@fval+1,___flneg@f1+1
  1393  0077D4  C079  F003         	movff	sprintf@fval+2,___flneg@f1+2
  1394  0077D8  C07A  F004         	movff	sprintf@fval+3,___flneg@f1+3
  1395  0077DC  ECB3  F032         	call	___flneg	;wreg free
  1396  0077E0  C001  F077         	movff	?___flneg,sprintf@fval
  1397  0077E4  C002  F078         	movff	?___flneg+1,sprintf@fval+1
  1398  0077E8  C003  F079         	movff	?___flneg+2,sprintf@fval+2
  1399  0077EC  C004  F07A         	movff	?___flneg+3,sprintf@fval+3
  1400                           
  1401                           ;doprnt.c: 833: flag |= 0x03;
  1402  0077F0  0E03               	movlw	3
  1403  0077F2  1273               	iorwf	sprintf@flag,f,c
  1404  0077F4                     l2889:
  1405                           
  1406                           ;doprnt.c: 834: }
  1407                           ;doprnt.c: 835: exp = 0;
  1408  0077F4  6A71               	clrf	sprintf@exp,c
  1409  0077F6  6A72               	clrf	sprintf@exp+1,c
  1410                           
  1411                           ;doprnt.c: 836: if( fval!=0) {
  1412  0077F8  5077               	movf	sprintf@fval,w,c
  1413  0077FA  1078               	iorwf	sprintf@fval+1,w,c
  1414  0077FC  1079               	iorwf	sprintf@fval+2,w,c
  1415  0077FE  107A               	iorwf	sprintf@fval+3,w,c
  1416  007800  E065               	bz	l2917
  1417                           
  1418                           ;doprnt.c: 837: (void)(*(&exp) = (unsigned char)((*(unsigned long *)&fval >> 23) & 255) 
      +                          - 126);
  1419  007802  3479               	rlcf	sprintf@fval+2,w,c
  1420  007804  347A               	rlcf	sprintf@fval+3,w,c
  1421  007806  0F82               	addlw	130
  1422  007808  6E71               	movwf	sprintf@exp,c
  1423  00780A  6A72               	clrf	sprintf@exp+1,c
  1424  00780C  0EFF               	movlw	255
  1425  00780E  2272               	addwfc	sprintf@exp+1,f,c
  1426                           
  1427                           ;doprnt.c: 838: exp--;
  1428  007810  0671               	decf	sprintf@exp,f,c
  1429  007812  A0D8               	btfss	status,0,c
  1430  007814  0672               	decf	sprintf@exp+1,f,c
  1431                           
  1432                           ;doprnt.c: 839: exp *= 3;
  1433  007816  C071  F001         	movff	sprintf@exp,___wmul@multiplier
  1434  00781A  C072  F002         	movff	sprintf@exp+1,___wmul@multiplier+1
  1435  00781E  6A04               	clrf	___wmul@multiplicand+1,c
  1436  007820  0E03               	movlw	3
  1437  007822  6E03               	movwf	___wmul@multiplicand,c
  1438  007824  ECD6  F032         	call	___wmul	;wreg free
  1439  007828  C001  F071         	movff	?___wmul,sprintf@exp
  1440  00782C  C002  F072         	movff	?___wmul+1,sprintf@exp+1
  1441                           
  1442                           ;doprnt.c: 840: exp /= 10;
  1443  007830  C071  F007         	movff	sprintf@exp,___awdiv@dividend
  1444  007834  C072  F008         	movff	sprintf@exp+1,___awdiv@dividend+1
  1445  007838  6A0A               	clrf	___awdiv@divisor+1,c
  1446  00783A  0E0A               	movlw	10
  1447  00783C  6E09               	movwf	___awdiv@divisor,c
  1448  00783E  ECE1  F034         	call	___awdiv	;wreg free
  1449  007842  C007  F071         	movff	?___awdiv,sprintf@exp
  1450  007846  C008  F072         	movff	?___awdiv+1,sprintf@exp+1
  1451                           
  1452                           ;doprnt.c: 841: if(exp < 0)
  1453  00784A  AE72               	btfss	sprintf@exp+1,7,c
  1454  00784C  D003               	goto	l2905
  1455                           
  1456                           ;doprnt.c: 842: exp--;
  1457  00784E  0671               	decf	sprintf@exp,f,c
  1458  007850  A0D8               	btfss	status,0,c
  1459  007852  0672               	decf	sprintf@exp+1,f,c
  1460  007854                     l2905:
  1461                           
  1462                           ;doprnt.c: 846: tmpval.integ = scale(-exp);
  1463  007854  5071               	movf	sprintf@exp,w,c
  1464  007856  0800               	sublw	0
  1465  007858  EC19  F03A         	call	_scale
  1466  00785C  C01E  F069         	movff	?_scale,sprintf@tmpval
  1467  007860  C01F  F06A         	movff	?_scale+1,sprintf@tmpval+1
  1468  007864  C020  F06B         	movff	?_scale+2,sprintf@tmpval+2
  1469  007868  C021  F06C         	movff	?_scale+3,sprintf@tmpval+3
  1470                           
  1471                           ;doprnt.c: 847: tmpval.integ *= fval;
  1472  00786C  C069  F00F         	movff	sprintf@tmpval,___flmul@f1
  1473  007870  C06A  F010         	movff	sprintf@tmpval+1,___flmul@f1+1
  1474  007874  C06B  F011         	movff	sprintf@tmpval+2,___flmul@f1+2
  1475  007878  C06C  F012         	movff	sprintf@tmpval+3,___flmul@f1+3
  1476  00787C  C077  F013         	movff	sprintf@fval,___flmul@f2
  1477  007880  C078  F014         	movff	sprintf@fval+1,___flmul@f2+1
  1478  007884  C079  F015         	movff	sprintf@fval+2,___flmul@f2+2
  1479  007888  C07A  F016         	movff	sprintf@fval+3,___flmul@f2+3
  1480  00788C  ECBE  F035         	call	___flmul	;wreg free
  1481  007890  C00F  F069         	movff	?___flmul,sprintf@tmpval
  1482  007894  C010  F06A         	movff	?___flmul+1,sprintf@tmpval+1
  1483  007898  C011  F06B         	movff	?___flmul+2,sprintf@tmpval+2
  1484  00789C  C012  F06C         	movff	?___flmul+3,sprintf@tmpval+3
  1485                           
  1486                           ;doprnt.c: 848: if(tmpval.integ < 1.0)
  1487  0078A0  DB03               	call	PL36	;call to abstracted procedure
  1488  0078A2  0E80               	movlw	128
  1489  0078A4  6E07               	movwf	___flge@ff2+2,c
  1490  0078A6  0E3F               	movlw	63
  1491  0078A8  6E08               	movwf	___flge@ff2+3,c
  1492  0078AA  ECED  F033         	call	___flge	;wreg free
  1493  0078AE  E204               	bc	l2913
  1494                           
  1495                           ;doprnt.c: 849: exp--;
  1496  0078B0  0671               	decf	sprintf@exp,f,c
  1497  0078B2  A0D8               	btfss	status,0,c
  1498  0078B4  0672               	decf	sprintf@exp+1,f,c
  1499  0078B6  D00A               	goto	l2917
  1500  0078B8                     l2913:
  1501                           
  1502                           ;doprnt.c: 850: else if(tmpval.integ >= 10.0)
  1503  0078B8  DAF7               	call	PL36	;call to abstracted procedure
  1504  0078BA  0E20               	movlw	32
  1505  0078BC  6E07               	movwf	___flge@ff2+2,c
  1506  0078BE  0E41               	movlw	65
  1507  0078C0  6E08               	movwf	___flge@ff2+3,c
  1508  0078C2  ECED  F033         	call	___flge	;wreg free
  1509  0078C6  E302               	bnc	l2917
  1510                           
  1511                           ;doprnt.c: 851: exp++;
  1512  0078C8  4A71               	infsnz	sprintf@exp,f,c
  1513  0078CA  2A72               	incf	sprintf@exp+1,f,c
  1514  0078CC                     l2917:
  1515                           
  1516                           ;doprnt.c: 852: }
  1517                           ;doprnt.c: 1112: if(prec <= 12)
  1518  0078CC  BE7C               	btfsc	sprintf@prec+1,7,c
  1519  0078CE  D005               	goto	l2919
  1520  0078D0  507C               	movf	sprintf@prec+1,w,c
  1521  0078D2  E120               	bnz	l2921
  1522  0078D4  0E0D               	movlw	13
  1523  0078D6  5C7B               	subwf	sprintf@prec,w,c
  1524  0078D8  E21D               	bc	l2921
  1525  0078DA                     l2919:
  1526                           
  1527                           ;doprnt.c: 1113: fval += fround(prec);
  1528  0078DA  C077  F02F         	movff	sprintf@fval,___fladd@f1
  1529  0078DE  C078  F030         	movff	sprintf@fval+1,___fladd@f1+1
  1530  0078E2  C079  F031         	movff	sprintf@fval+2,___fladd@f1+2
  1531  0078E6  C07A  F032         	movff	sprintf@fval+3,___fladd@f1+3
  1532  0078EA  507B               	movf	sprintf@prec,w,c
  1533  0078EC  EC56  F039         	call	_fround
  1534  0078F0  C01E  F033         	movff	?_fround,___fladd@f2
  1535  0078F4  C01F  F034         	movff	?_fround+1,___fladd@f2+1
  1536  0078F8  C020  F035         	movff	?_fround+2,___fladd@f2+2
  1537  0078FC  C021  F036         	movff	?_fround+3,___fladd@f2+3
  1538  007900  ECA9  F038         	call	___fladd	;wreg free
  1539  007904  C02F  F077         	movff	?___fladd,sprintf@fval
  1540  007908  C030  F078         	movff	?___fladd+1,sprintf@fval+1
  1541  00790C  C031  F079         	movff	?___fladd+2,sprintf@fval+2
  1542  007910  C032  F07A         	movff	?___fladd+3,sprintf@fval+3
  1543  007914                     l2921:
  1544                           
  1545                           ;doprnt.c: 1116: if((exp > 9)||(fval != 0 && (unsigned long)fval == 0 && exp > 1)) {
  1546  007914  BE72               	btfsc	sprintf@exp+1,7,c
  1547  007916  D005               	goto	l2923
  1548  007918  5072               	movf	sprintf@exp+1,w,c
  1549  00791A  E11E               	bnz	l2929
  1550  00791C  0E0A               	movlw	10
  1551  00791E  5C71               	subwf	sprintf@exp,w,c
  1552  007920  E21B               	bc	l2929
  1553  007922                     l2923:
  1554  007922  5077               	movf	sprintf@fval,w,c
  1555  007924  1078               	iorwf	sprintf@fval+1,w,c
  1556  007926  1079               	iorwf	sprintf@fval+2,w,c
  1557  007928  107A               	iorwf	sprintf@fval+3,w,c
  1558  00792A  E058               	bz	l2943
  1559  00792C  C077  F027         	movff	sprintf@fval,___fltol@f1
  1560  007930  C078  F028         	movff	sprintf@fval+1,___fltol@f1+1
  1561  007934  C079  F029         	movff	sprintf@fval+2,___fltol@f1+2
  1562  007938  C07A  F02A         	movff	sprintf@fval+3,___fltol@f1+3
  1563  00793C  EC1D  F035         	call	___fltol	;wreg free
  1564  007940  5027               	movf	?___fltol,w,c
  1565  007942  1028               	iorwf	?___fltol+1,w,c
  1566  007944  1029               	iorwf	?___fltol+2,w,c
  1567  007946  102A               	iorwf	?___fltol+3,w,c
  1568  007948  B4D8               	btfsc	status,2,c
  1569  00794A  BE72               	btfsc	sprintf@exp+1,7,c
  1570  00794C  D047               	goto	l2943
  1571  00794E  5072               	movf	sprintf@exp+1,w,c
  1572  007950  E103               	bnz	u2990
  1573  007952  0E02               	movlw	2
  1574  007954  5C71               	subwf	sprintf@exp,w,c
  1575  007956  E342               	bnc	l2943
  1576  007958                     u2990:
  1577  007958                     l2929:
  1578                           
  1579                           ;doprnt.c: 1120: if(tmpval.integ < 4.294967296){
  1580  007958  C069  F001         	movff	sprintf@tmpval,___flge@ff1
  1581  00795C  C06A  F002         	movff	sprintf@tmpval+1,___flge@ff1+1
  1582  007960  C06B  F003         	movff	sprintf@tmpval+2,___flge@ff1+2
  1583  007964  C06C  F004         	movff	sprintf@tmpval+3,___flge@ff1+3
  1584  007968  0E5F               	movlw	95
  1585  00796A  6E05               	movwf	___flge@ff2,c
  1586  00796C  0E70               	movlw	112
  1587  00796E  6E06               	movwf	___flge@ff2+1,c
  1588  007970  0E89               	movlw	137
  1589  007972  6E07               	movwf	___flge@ff2+2,c
  1590  007974  0E40               	movlw	64
  1591  007976  6E08               	movwf	___flge@ff2+3,c
  1592  007978  ECED  F033         	call	___flge	;wreg free
  1593                           
  1594                           ;doprnt.c: 1121: exp -= (sizeof dpowers/sizeof dpowers[0])-1;
  1595  00797C  0EF7               	movlw	247
  1596  00797E  B0D8               	btfsc	status,0,c
  1597                           
  1598                           ;doprnt.c: 1123: exp -= (sizeof dpowers/sizeof dpowers[0])-2;
  1599                           
  1600                           ;doprnt.c: 1122: }else{
  1601  007980  0EF8               	movlw	248
  1602  007982  2671               	addwf	sprintf@exp,f,c
  1603  007984  0EFF               	movlw	255
  1604  007986  2272               	addwfc	sprintf@exp+1,f,c
  1605                           
  1606                           ;doprnt.c: 1126: val = ((sizeof(double)== 3) ? _tdiv_to_l_(fval,tmpval.integ) : _div_to_
      +                          l_(fval,tmpval.integ));
  1607  007988  5071               	movf	sprintf@exp,w,c
  1608  00798A  EC19  F03A         	call	_scale
  1609  00798E  C01E  F069         	movff	?_scale,sprintf@tmpval
  1610  007992  C01F  F06A         	movff	?_scale+1,sprintf@tmpval+1
  1611  007996  C020  F06B         	movff	?_scale+2,sprintf@tmpval+2
  1612  00799A  C021  F06C         	movff	?_scale+3,sprintf@tmpval+3
  1613  00799E  C077  F001         	movff	sprintf@fval,__div_to_l_@f1
  1614  0079A2  C078  F002         	movff	sprintf@fval+1,__div_to_l_@f1+1
  1615  0079A6  C079  F003         	movff	sprintf@fval+2,__div_to_l_@f1+2
  1616  0079AA  C07A  F004         	movff	sprintf@fval+3,__div_to_l_@f1+3
  1617  0079AE  C069  F005         	movff	sprintf@tmpval,__div_to_l_@f2
  1618  0079B2  C06A  F006         	movff	sprintf@tmpval+1,__div_to_l_@f2+1
  1619  0079B6  C06B  F007         	movff	sprintf@tmpval+2,__div_to_l_@f2+2
  1620  0079BA  C06C  F008         	movff	sprintf@tmpval+3,__div_to_l_@f2+3
  1621  0079BE  EC1B  F036         	call	__div_to_l_	;wreg free
  1622  0079C2  C001  F06D         	movff	?__div_to_l_,sprintf@val
  1623  0079C6  C002  F06E         	movff	?__div_to_l_+1,sprintf@val+1
  1624  0079CA  C003  F06F         	movff	?__div_to_l_+2,sprintf@val+2
  1625  0079CE  C004  F070         	movff	?__div_to_l_+3,sprintf@val+3
  1626                           
  1627                           ;doprnt.c: 1129: fval = 0.0;
  1628  0079D2  6A77               	clrf	sprintf@fval,c
  1629  0079D4  6A78               	clrf	sprintf@fval+1,c
  1630  0079D6  6A79               	clrf	sprintf@fval+2,c
  1631  0079D8  6A7A               	clrf	sprintf@fval+3,c
  1632                           
  1633                           ;doprnt.c: 1130: } else {
  1634  0079DA  D038               	goto	l2947
  1635  0079DC                     l2943:
  1636                           
  1637                           ;doprnt.c: 1131: val = (unsigned long)fval;
  1638  0079DC  C077  F027         	movff	sprintf@fval,___fltol@f1
  1639  0079E0  C078  F028         	movff	sprintf@fval+1,___fltol@f1+1
  1640  0079E4  C079  F029         	movff	sprintf@fval+2,___fltol@f1+2
  1641  0079E8  C07A  F02A         	movff	sprintf@fval+3,___fltol@f1+3
  1642  0079EC  EC1D  F035         	call	___fltol	;wreg free
  1643  0079F0  C027  F06D         	movff	?___fltol,sprintf@val
  1644  0079F4  C028  F06E         	movff	?___fltol+1,sprintf@val+1
  1645  0079F8  C029  F06F         	movff	?___fltol+2,sprintf@val+2
  1646  0079FC  C02A  F070         	movff	?___fltol+3,sprintf@val+3
  1647                           
  1648                           ;doprnt.c: 1132: fval -= (double)val;
  1649  007A00  C077  F03B         	movff	sprintf@fval,___flsub@f1
  1650  007A04  C078  F03C         	movff	sprintf@fval+1,___flsub@f1+1
  1651  007A08  C079  F03D         	movff	sprintf@fval+2,___flsub@f1+2
  1652  007A0C  C07A  F03E         	movff	sprintf@fval+3,___flsub@f1+3
  1653  007A10  C06D  F00B         	movff	sprintf@val,___lltofl@c
  1654  007A14  C06E  F00C         	movff	sprintf@val+1,___lltofl@c+1
  1655  007A18  C06F  F00D         	movff	sprintf@val+2,___lltofl@c+2
  1656  007A1C  C070  F00E         	movff	sprintf@val+3,___lltofl@c+3
  1657  007A20  EC3B  F033         	call	___lltofl	;wreg free
  1658  007A24  C00B  F03F         	movff	?___lltofl,___flsub@f2
  1659  007A28  C00C  F040         	movff	?___lltofl+1,___flsub@f2+1
  1660  007A2C  C00D  F041         	movff	?___lltofl+2,___flsub@f2+2
  1661  007A30  C00E  F042         	movff	?___lltofl+3,___flsub@f2+3
  1662  007A34  ECA7  F033         	call	___flsub	;wreg free
  1663  007A38  C03B  F077         	movff	?___flsub,sprintf@fval
  1664  007A3C  C03C  F078         	movff	?___flsub+1,sprintf@fval+1
  1665  007A40  C03D  F079         	movff	?___flsub+2,sprintf@fval+2
  1666  007A44  C03E  F07A         	movff	?___flsub+3,sprintf@fval+3
  1667                           
  1668                           ;doprnt.c: 1133: exp = 0;
  1669  007A48  6A71               	clrf	sprintf@exp,c
  1670  007A4A  6A72               	clrf	sprintf@exp+1,c
  1671  007A4C                     l2947:
  1672                           
  1673                           ;doprnt.c: 1134: }
  1674                           ;doprnt.c: 1136: for(c = 1 ; c != (sizeof dpowers/sizeof dpowers[0]) ; c++)
  1675  007A4C  0E01               	movlw	1
  1676  007A4E  6E7E               	movwf	sprintf@c,c
  1677  007A50                     l2953:
  1678                           
  1679                           ;doprnt.c: 1137: if(val < dpowers[c])
  1680  007A50  D9D7               	call	PL6	;call to abstracted procedure
  1681  007A52  DA1E               	call	PL32	;call to abstracted procedure
  1682  007A54  E304               	bnc	l2961
  1683  007A56  2A7E               	incf	sprintf@c,f,c
  1684  007A58  0E0A               	movlw	10
  1685  007A5A  187E               	xorwf	sprintf@c,w,c
  1686  007A5C  E1F9               	bnz	l2953
  1687  007A5E                     l2961:
  1688                           
  1689                           ;doprnt.c: 1142: width -= prec + c + exp;
  1690  007A5E  C07E  F060         	movff	sprintf@c,??_sprintf
  1691  007A62  6A61               	clrf	(??_sprintf+1)& (0+255),c
  1692  007A64  BE60               	btfsc	??_sprintf& (0+255),7,c
  1693  007A66  0661               	decf	(??_sprintf+1)& (0+255),f,c
  1694  007A68  507B               	movf	sprintf@prec,w,c
  1695  007A6A  2660               	addwf	??_sprintf,f,c
  1696  007A6C  507C               	movf	sprintf@prec+1,w,c
  1697  007A6E  2261               	addwfc	??_sprintf+1,f,c
  1698  007A70  5071               	movf	sprintf@exp,w,c
  1699  007A72  2660               	addwf	??_sprintf,f,c
  1700  007A74  5072               	movf	sprintf@exp+1,w,c
  1701  007A76  2261               	addwfc	??_sprintf+1,f,c
  1702  007A78  5060               	movf	??_sprintf,w,c
  1703  007A7A  5E75               	subwf	sprintf@width,f,c
  1704  007A7C  5061               	movf	??_sprintf+1,w,c
  1705  007A7E  5A76               	subwfb	sprintf@width+1,f,c
  1706                           
  1707                           ;doprnt.c: 1143: if(
  1708                           ;doprnt.c: 1147: prec)
  1709  007A80  507B               	movf	sprintf@prec,w,c
  1710  007A82  107C               	iorwf	sprintf@prec+1,w,c
  1711  007A84  E003               	bz	l2965
  1712                           
  1713                           ;doprnt.c: 1148: width--;
  1714  007A86  0675               	decf	sprintf@width,f,c
  1715  007A88  A0D8               	btfss	status,0,c
  1716  007A8A  0676               	decf	sprintf@width+1,f,c
  1717  007A8C                     l2965:
  1718                           
  1719                           ;doprnt.c: 1149: if(flag & 0x03)
  1720  007A8C  C073  F060         	movff	sprintf@flag,??_sprintf
  1721  007A90  0E03               	movlw	3
  1722  007A92  1660               	andwf	??_sprintf,f,c
  1723  007A94  E003               	bz	l2969
  1724                           
  1725                           ;doprnt.c: 1150: width--;
  1726  007A96  0675               	decf	sprintf@width,f,c
  1727  007A98  A0D8               	btfss	status,0,c
  1728  007A9A  0676               	decf	sprintf@width+1,f,c
  1729  007A9C                     l2969:
  1730                           
  1731                           ;doprnt.c: 1153: if(flag & 0x04) {
  1732  007A9C  A473               	btfss	sprintf@flag,2,c
  1733  007A9E  D015               	goto	l2991
  1734                           
  1735                           ;doprnt.c: 1157: if(flag & 0x03)
  1736  007AA0  C073  F060         	movff	sprintf@flag,??_sprintf
  1737  007AA4  0E03               	movlw	3
  1738  007AA6  1660               	andwf	??_sprintf,f,c
  1739  007AA8  E006               	bz	l2983
  1740                           
  1741                           ;doprnt.c: 1159: ((*sp++ = ('-')));
  1742  007AAA  DA1A               	call	PL52	;call to abstracted procedure
  1743  007AAC  D004               	goto	l2983
  1744  007AAE                     l2977:
  1745                           
  1746                           ;doprnt.c: 1169: ((*sp++ = ('0')));
  1747  007AAE  D9E9               	call	PL28	;call to abstracted procedure
  1748                           
  1749                           ;doprnt.c: 1170: width--;
  1750  007AB0  0675               	decf	sprintf@width,f,c
  1751  007AB2  A0D8               	btfss	status,0,c
  1752  007AB4  0676               	decf	sprintf@width+1,f,c
  1753  007AB6                     l2983:
  1754  007AB6  BE76               	btfsc	sprintf@width+1,7,c
  1755  007AB8  D02B               	goto	l3007
  1756  007ABA  5076               	movf	sprintf@width+1,w,c
  1757  007ABC  E1F8               	bnz	l2977
  1758  007ABE  0475               	decf	sprintf@width,w,c
  1759  007AC0  E327               	bnc	l3007
  1760  007AC2  D7F5               	goto	l2977
  1761  007AC4                     l2985:
  1762                           
  1763                           ;doprnt.c: 1181: ((*sp++ = (' ')));
  1764                           
  1765                           ;doprnt.c: 1182: width--;
  1766  007AC4  DA05               	call	PL48	;call to abstracted procedure
  1767  007AC6  A0D8               	btfss	status,0,c
  1768  007AC8  0676               	decf	sprintf@width+1,f,c
  1769  007ACA                     l2991:
  1770  007ACA  BE76               	btfsc	sprintf@width+1,7,c
  1771  007ACC  D004               	goto	l2993
  1772  007ACE  5076               	movf	sprintf@width+1,w,c
  1773  007AD0  E1F9               	bnz	l2985
  1774  007AD2  0475               	decf	sprintf@width,w,c
  1775  007AD4  E2F7               	bc	l2985
  1776  007AD6                     l2993:
  1777                           
  1778                           ;doprnt.c: 1183: }
  1779                           ;doprnt.c: 1188: if(flag & 0x03)
  1780  007AD6  C073  F060         	movff	sprintf@flag,??_sprintf
  1781  007ADA  0E03               	movlw	3
  1782  007ADC  1660               	andwf	??_sprintf,f,c
  1783  007ADE  E018               	bz	l3007
  1784                           
  1785                           ;doprnt.c: 1190: ((*sp++ = ('-')));
  1786  007AE0  507D               	movf	sprintf@sp,w,c
  1787  007AE2  6ED9               	movwf	fsr2l,c
  1788  007AE4  6ADA               	clrf	fsr2h,c
  1789  007AE6  0E2D               	movlw	45
  1790  007AE8  6EDF               	movwf	indf2,c
  1791  007AEA  2A7D               	incf	sprintf@sp,f,c
  1792  007AEC  D011               	goto	l3007
  1793  007AEE                     l2999:
  1794                           
  1795                           ;doprnt.c: 1200: {
  1796                           ;doprnt.c: 1201: tmpval.vd = val/dpowers[c];
  1797  007AEE  C06D  F001         	movff	sprintf@val,___lldiv@dividend
  1798  007AF2  C06E  F002         	movff	sprintf@val+1,___lldiv@dividend+1
  1799  007AF6  C06F  F003         	movff	sprintf@val+2,___lldiv@dividend+2
  1800  007AFA  C070  F004         	movff	sprintf@val+3,___lldiv@dividend+3
  1801  007AFE  D980               	call	PL6	;call to abstracted procedure
  1802  007B00  D9A6               	call	PL24	;call to abstracted procedure
  1803  007B02  ECA6  F034         	call	___lldiv	;wreg free
  1804                           
  1805                           ;doprnt.c: 1202: tmpval.vd %= 10;
  1806  007B06  D98D               	call	PL20	;call to abstracted procedure
  1807  007B08  EC41  F034         	call	___llmod	;wreg free
  1808                           
  1809                           ;doprnt.c: 1203: ((*sp++ = ('0' + tmpval.vd)));
  1810  007B0C  D9AC               	call	PL26	;call to abstracted procedure
  1811  007B0E  D7EC               	goto	L2
  1812  007B10                     l3007:
  1813  007B10  067E               	decf	sprintf@c,f,c
  1814  007B12  287E               	incf	sprintf@c,w,c
  1815  007B14  E005               	bz	l3015
  1816  007B16  D7EB               	goto	l2999
  1817  007B18                     l3009:
  1818                           
  1819                           ;doprnt.c: 1208: ((*sp++ = ('0')));
  1820  007B18  D9B4               	call	PL28	;call to abstracted procedure
  1821                           
  1822                           ;doprnt.c: 1209: exp--;
  1823  007B1A  0671               	decf	sprintf@exp,f,c
  1824  007B1C  A0D8               	btfss	status,0,c
  1825  007B1E  0672               	decf	sprintf@exp+1,f,c
  1826  007B20                     l3015:
  1827  007B20  BE72               	btfsc	sprintf@exp+1,7,c
  1828  007B22  D004               	goto	l3017
  1829  007B24  5072               	movf	sprintf@exp+1,w,c
  1830  007B26  E1F8               	bnz	l3009
  1831  007B28  0471               	decf	sprintf@exp,w,c
  1832  007B2A  E2F6               	bc	l3009
  1833  007B2C                     l3017:
  1834                           
  1835                           ;doprnt.c: 1210: }
  1836                           ;doprnt.c: 1211: if(prec > (int)((sizeof dpowers/sizeof dpowers[0])-2))
  1837  007B2C  BE7C               	btfsc	sprintf@prec+1,7,c
  1838  007B2E  D008               	goto	l365
  1839  007B30  507C               	movf	sprintf@prec+1,w,c
  1840  007B32  E103               	bnz	u3120
  1841  007B34  0E09               	movlw	9
  1842  007B36  5C7B               	subwf	sprintf@prec,w,c
  1843  007B38  E303               	bnc	l365
  1844  007B3A                     u3120:
  1845                           
  1846                           ;doprnt.c: 1212: c = (sizeof dpowers/sizeof dpowers[0])-2;
  1847  007B3A  0E08               	movlw	8
  1848  007B3C  6E7E               	movwf	sprintf@c,c
  1849  007B3E  D002               	goto	l3021
  1850  007B40                     l365:
  1851                           
  1852                           ;doprnt.c: 1213: else
  1853                           ;doprnt.c: 1214: c = prec;
  1854  007B40  C07B  F07E         	movff	sprintf@prec,sprintf@c
  1855  007B44                     l3021:
  1856                           
  1857                           ;doprnt.c: 1215: prec -= c;
  1858  007B44  507E               	movf	sprintf@c,w,c
  1859  007B46  5E7B               	subwf	sprintf@prec,f,c
  1860  007B48  0E00               	movlw	0
  1861  007B4A  BE7E               	btfsc	sprintf@c,7,c
  1862  007B4C  0EFF               	movlw	255
  1863  007B4E  5A7C               	subwfb	sprintf@prec+1,f,c
  1864                           
  1865                           ;doprnt.c: 1219: if(c)
  1866  007B50  507E               	movf	sprintf@c,w,c
  1867  007B52  E006               	bz	l3029
  1868                           
  1869                           ;doprnt.c: 1221: ((*sp++ = ('.')));
  1870  007B54  507D               	movf	sprintf@sp,w,c
  1871  007B56  6ED9               	movwf	fsr2l,c
  1872  007B58  6ADA               	clrf	fsr2h,c
  1873  007B5A  0E2E               	movlw	46
  1874  007B5C  6EDF               	movwf	indf2,c
  1875  007B5E  2A7D               	incf	sprintf@sp,f,c
  1876  007B60                     l3029:
  1877                           
  1878                           ;doprnt.c: 1227: val = (long)(fval * scale(c));
  1879  007B60  507E               	movf	sprintf@c,w,c
  1880  007B62  EC19  F03A         	call	_scale
  1881  007B66  C01E  F064         	movff	?_scale,_sprintf$1443
  1882  007B6A  C01F  F065         	movff	?_scale+1,_sprintf$1443+1
  1883  007B6E  C020  F066         	movff	?_scale+2,_sprintf$1443+2
  1884  007B72  C021  F067         	movff	?_scale+3,_sprintf$1443+3
  1885                           
  1886                           ;doprnt.c: 1227: val = (long)(fval * scale(c));
  1887  007B76  C077  F013         	movff	sprintf@fval,___flmul@f2
  1888  007B7A  C078  F014         	movff	sprintf@fval+1,___flmul@f2+1
  1889  007B7E  C079  F015         	movff	sprintf@fval+2,___flmul@f2+2
  1890  007B82  C07A  F016         	movff	sprintf@fval+3,___flmul@f2+3
  1891  007B86  C064  F00F         	movff	_sprintf$1443,___flmul@f1
  1892  007B8A  C065  F010         	movff	_sprintf$1443+1,___flmul@f1+1
  1893  007B8E  C066  F011         	movff	_sprintf$1443+2,___flmul@f1+2
  1894  007B92  C067  F012         	movff	_sprintf$1443+3,___flmul@f1+3
  1895  007B96  ECBE  F035         	call	___flmul	;wreg free
  1896  007B9A  C00F  F027         	movff	?___flmul,___fltol@f1
  1897  007B9E  C010  F028         	movff	?___flmul+1,___fltol@f1+1
  1898  007BA2  C011  F029         	movff	?___flmul+2,___fltol@f1+2
  1899  007BA6  C012  F02A         	movff	?___flmul+3,___fltol@f1+3
  1900  007BAA  EC1D  F035         	call	___fltol	;wreg free
  1901  007BAE  C027  F06D         	movff	?___fltol,sprintf@val
  1902  007BB2  C028  F06E         	movff	?___fltol+1,sprintf@val+1
  1903  007BB6  C029  F06F         	movff	?___fltol+2,sprintf@val+2
  1904  007BBA  C02A  F070         	movff	?___fltol+3,sprintf@val+3
  1905                           
  1906                           ;doprnt.c: 1228: while(c--) {
  1907  007BBE  D030               	goto	l3043
  1908  007BC0                     l3033:
  1909                           
  1910                           ;doprnt.c: 1229: tmpval.vd = val/dpowers[c];
  1911  007BC0  C06D  F001         	movff	sprintf@val,___lldiv@dividend
  1912  007BC4  C06E  F002         	movff	sprintf@val+1,___lldiv@dividend+1
  1913  007BC8  C06F  F003         	movff	sprintf@val+2,___lldiv@dividend+2
  1914  007BCC  C070  F004         	movff	sprintf@val+3,___lldiv@dividend+3
  1915  007BD0  D917               	call	PL6	;call to abstracted procedure
  1916  007BD2  D93D               	call	PL24	;call to abstracted procedure
  1917  007BD4  ECA6  F034         	call	___lldiv	;wreg free
  1918                           
  1919                           ;doprnt.c: 1230: tmpval.vd %= 10;
  1920  007BD8  D924               	call	PL20	;call to abstracted procedure
  1921  007BDA  EC41  F034         	call	___llmod	;wreg free
  1922                           
  1923                           ;doprnt.c: 1231: ((*sp++ = ('0' + tmpval.vd)));
  1924  007BDE  D943               	call	PL26	;call to abstracted procedure
  1925  007BE0  6EDF               	movwf	indf2,c
  1926  007BE2  2A7D               	incf	sprintf@sp,f,c
  1927                           
  1928                           ;doprnt.c: 1232: val %= dpowers[c];
  1929  007BE4  C06D  F00E         	movff	sprintf@val,___llmod@dividend
  1930  007BE8  C06E  F00F         	movff	sprintf@val+1,___llmod@dividend+1
  1931  007BEC  C06F  F010         	movff	sprintf@val+2,___llmod@dividend+2
  1932  007BF0  C070  F011         	movff	sprintf@val+3,___llmod@dividend+3
  1933  007BF4  D905               	call	PL6	;call to abstracted procedure
  1934  007BF6  CFF5 F012          	movff	tablat,___llmod@divisor
  1935  007BFA  0009               	tblrd		*+
  1936  007BFC  CFF5 F013          	movff	tablat,___llmod@divisor+1
  1937  007C00  0009               	tblrd		*+
  1938  007C02  CFF5 F014          	movff	tablat,___llmod@divisor+2
  1939  007C06  000A               	tblrd		*-
  1940  007C08  CFF5 F015          	movff	tablat,___llmod@divisor+3
  1941  007C0C  EC41  F034         	call	___llmod	;wreg free
  1942  007C10  C00E  F06D         	movff	?___llmod,sprintf@val
  1943  007C14  C00F  F06E         	movff	?___llmod+1,sprintf@val+1
  1944  007C18  C010  F06F         	movff	?___llmod+2,sprintf@val+2
  1945  007C1C  C011  F070         	movff	?___llmod+3,sprintf@val+3
  1946  007C20                     l3043:
  1947  007C20  067E               	decf	sprintf@c,f,c
  1948  007C22  287E               	incf	sprintf@c,w,c
  1949  007C24  E005               	bz	l3051
  1950  007C26  D7CC               	goto	l3033
  1951  007C28                     l3045:
  1952                           
  1953                           ;doprnt.c: 1236: ((*sp++ = ('0')));
  1954  007C28  D92C               	call	PL28	;call to abstracted procedure
  1955                           
  1956                           ;doprnt.c: 1237: prec--;
  1957  007C2A  067B               	decf	sprintf@prec,f,c
  1958  007C2C  A0D8               	btfss	status,0,c
  1959  007C2E  067C               	decf	sprintf@prec+1,f,c
  1960  007C30                     l3051:
  1961  007C30  507B               	movf	sprintf@prec,w,c
  1962  007C32  107C               	iorwf	sprintf@prec+1,w,c
  1963  007C34  E101 D0DA          	bz	l3143
  1964  007C38  D7F7               	goto	l3045
  1965  007C3A                     l3053:
  1966                           
  1967                           ;doprnt.c: 1246: }
  1968                           ;doprnt.c: 1253: {
  1969                           ;doprnt.c: 1259: val = (long)(*(int *)__va_arg((*(int **)ap), (int)0));
  1970  007C3A  5068               	movf	sprintf@ap,w,c
  1971  007C3C  6ED9               	movwf	fsr2l,c
  1972  007C3E  6ADA               	clrf	fsr2h,c
  1973  007C40  CFDE F06D          	movff	postinc2,sprintf@val
  1974  007C44  CFDD F06E          	movff	postdec2,sprintf@val+1
  1975  007C48  0E00               	movlw	0
  1976  007C4A  BE6E               	btfsc	sprintf@val+1,7,c
  1977  007C4C  0EFF               	movlw	-1
  1978  007C4E  6E6F               	movwf	sprintf@val+2,c
  1979  007C50  6E70               	movwf	sprintf@val+3,c
  1980  007C52  0E02               	movlw	2
  1981  007C54  2668               	addwf	sprintf@ap,f,c
  1982                           
  1983                           ;doprnt.c: 1261: if((long)val < 0) {
  1984  007C56  AE70               	btfss	sprintf@val+3,7,c
  1985  007C58  D00A               	goto	l3063
  1986                           
  1987                           ;doprnt.c: 1262: flag |= 0x03;
  1988  007C5A  0E03               	movlw	3
  1989  007C5C  1273               	iorwf	sprintf@flag,f,c
  1990                           
  1991                           ;doprnt.c: 1263: val = -val;
  1992  007C5E  1E70               	comf	sprintf@val+3,f,c
  1993  007C60  1E6F               	comf	sprintf@val+2,f,c
  1994  007C62  1E6E               	comf	sprintf@val+1,f,c
  1995  007C64  6C6D               	negf	sprintf@val,c
  1996  007C66  0E00               	movlw	0
  1997  007C68  226E               	addwfc	sprintf@val+1,f,c
  1998  007C6A  226F               	addwfc	sprintf@val+2,f,c
  1999  007C6C  2270               	addwfc	sprintf@val+3,f,c
  2000  007C6E                     l3063:
  2001                           
  2002                           ;doprnt.c: 1264: }
  2003                           ;doprnt.c: 1266: }
  2004                           ;doprnt.c: 1290: if(prec == 0 && val == 0)
  2005  007C6E  507B               	movf	sprintf@prec,w,c
  2006  007C70  107C               	iorwf	sprintf@prec+1,w,c
  2007  007C72  E107               	bnz	l3069
  2008  007C74  506D               	movf	sprintf@val,w,c
  2009  007C76  106E               	iorwf	sprintf@val+1,w,c
  2010  007C78  106F               	iorwf	sprintf@val+2,w,c
  2011  007C7A  1070               	iorwf	sprintf@val+3,w,c
  2012  007C7C  E102               	bnz	l3069
  2013                           
  2014                           ;doprnt.c: 1291: prec++;
  2015  007C7E  4A7B               	infsnz	sprintf@prec,f,c
  2016  007C80  2A7C               	incf	sprintf@prec+1,f,c
  2017  007C82                     l3069:
  2018                           
  2019                           ;doprnt.c: 1305: for(c = 1 ; c != sizeof dpowers/sizeof dpowers[0] ; c++)
  2020  007C82  0E01               	movlw	1
  2021  007C84  6E7E               	movwf	sprintf@c,c
  2022  007C86                     l3075:
  2023                           
  2024                           ;doprnt.c: 1306: if(val < dpowers[c])
  2025  007C86  D8BC               	call	PL6	;call to abstracted procedure
  2026  007C88  D903               	call	PL32	;call to abstracted procedure
  2027  007C8A  E304               	bnc	l3083
  2028  007C8C  2A7E               	incf	sprintf@c,f,c
  2029  007C8E  0E0A               	movlw	10
  2030  007C90  187E               	xorwf	sprintf@c,w,c
  2031  007C92  E1F9               	bnz	l3075
  2032  007C94                     l3083:
  2033                           
  2034                           ;doprnt.c: 1339: if(c < prec)
  2035  007C94  0E80               	movlw	128
  2036  007C96  BE7E               	btfsc	sprintf@c,7,c
  2037  007C98  0E7F               	movlw	127
  2038  007C9A  6E60               	movwf	??_sprintf& (0+255),c
  2039  007C9C  507B               	movf	sprintf@prec,w,c
  2040  007C9E  5C7E               	subwf	sprintf@c,w,c
  2041  007CA0  507C               	movf	sprintf@prec+1,w,c
  2042  007CA2  0A80               	xorlw	128
  2043  007CA4  5860               	subwfb	??_sprintf& (0+255),w,c
  2044  007CA6  E203               	bc	l3087
  2045                           
  2046                           ;doprnt.c: 1340: c = prec;
  2047  007CA8  C07B  F07E         	movff	sprintf@prec,sprintf@c
  2048  007CAC  D00F               	goto	l3091
  2049  007CAE                     l3087:
  2050                           
  2051                           ;doprnt.c: 1341: else if(prec < c)
  2052  007CAE  507C               	movf	sprintf@prec+1,w,c
  2053  007CB0  0A80               	xorlw	128
  2054  007CB2  6E60               	movwf	??_sprintf& (0+255),c
  2055  007CB4  507E               	movf	sprintf@c,w,c
  2056  007CB6  5C7B               	subwf	sprintf@prec,w,c
  2057  007CB8  0E80               	movlw	128
  2058  007CBA  BE7E               	btfsc	sprintf@c,7,c
  2059  007CBC  0E7F               	movlw	127
  2060  007CBE  5860               	subwfb	??_sprintf& (0+255),w,c
  2061  007CC0  E205               	bc	l3091
  2062                           
  2063                           ;doprnt.c: 1342: prec = c;
  2064  007CC2  507E               	movf	sprintf@c,w,c
  2065  007CC4  6E7B               	movwf	sprintf@prec,c
  2066  007CC6  6A7C               	clrf	sprintf@prec+1,c
  2067  007CC8  BE7B               	btfsc	sprintf@prec,7,c
  2068  007CCA  067C               	decf	sprintf@prec+1,f,c
  2069  007CCC                     l3091:
  2070                           
  2071                           ;doprnt.c: 1345: if(width && flag & 0x03)
  2072  007CCC  5075               	movf	sprintf@width,w,c
  2073  007CCE  1076               	iorwf	sprintf@width+1,w,c
  2074  007CD0  E008               	bz	l3097
  2075  007CD2  C073  F060         	movff	sprintf@flag,??_sprintf
  2076  007CD6  0E03               	movlw	3
  2077  007CD8  1660               	andwf	??_sprintf,f,c
  2078  007CDA  E003               	bz	l3097
  2079                           
  2080                           ;doprnt.c: 1346: width--;
  2081  007CDC  0675               	decf	sprintf@width,f,c
  2082  007CDE  A0D8               	btfss	status,0,c
  2083  007CE0  0676               	decf	sprintf@width+1,f,c
  2084  007CE2                     l3097:
  2085                           
  2086                           ;doprnt.c: 1348: if(flag & 0x4000) {
  2087  007CE2  AC74               	btfss	sprintf@flag+1,6,c
  2088  007CE4  D010               	goto	l3103
  2089                           
  2090                           ;doprnt.c: 1349: if(width > prec)
  2091  007CE6  5075               	movf	sprintf@width,w,c
  2092  007CE8  5C7B               	subwf	sprintf@prec,w,c
  2093  007CEA  507C               	movf	sprintf@prec+1,w,c
  2094  007CEC  0A80               	xorlw	128
  2095  007CEE  6E60               	movwf	??_sprintf& (0+255),c
  2096  007CF0  5076               	movf	sprintf@width+1,w,c
  2097  007CF2  0A80               	xorlw	128
  2098  007CF4  5860               	subwfb	??_sprintf& (0+255),w,c
  2099  007CF6  E205               	bc	l384
  2100                           
  2101                           ;doprnt.c: 1350: width -= prec;
  2102  007CF8  507B               	movf	sprintf@prec,w,c
  2103  007CFA  5E75               	subwf	sprintf@width,f,c
  2104  007CFC  507C               	movf	sprintf@prec+1,w,c
  2105  007CFE  5A76               	subwfb	sprintf@width+1,f,c
  2106  007D00  D002               	goto	l3103
  2107  007D02                     l384:
  2108                           
  2109                           ;doprnt.c: 1351: else
  2110                           ;doprnt.c: 1352: width = 0;
  2111  007D02  6A75               	clrf	sprintf@width,c
  2112  007D04  6A76               	clrf	sprintf@width+1,c
  2113  007D06                     l3103:
  2114                           
  2115                           ;doprnt.c: 1353: }
  2116                           ;doprnt.c: 1381: if(width > c)
  2117  007D06  0E80               	movlw	128
  2118  007D08  BE7E               	btfsc	sprintf@c,7,c
  2119  007D0A  0E7F               	movlw	127
  2120  007D0C  6E60               	movwf	??_sprintf& (0+255),c
  2121  007D0E  5075               	movf	sprintf@width,w,c
  2122  007D10  5C7E               	subwf	sprintf@c,w,c
  2123  007D12  5076               	movf	sprintf@width+1,w,c
  2124  007D14  0A80               	xorlw	128
  2125  007D16  5860               	subwfb	??_sprintf& (0+255),w,c
  2126  007D18  E207               	bc	l386
  2127                           
  2128                           ;doprnt.c: 1382: width -= c;
  2129  007D1A  507E               	movf	sprintf@c,w,c
  2130  007D1C  5E75               	subwf	sprintf@width,f,c
  2131  007D1E  0E00               	movlw	0
  2132  007D20  BE7E               	btfsc	sprintf@c,7,c
  2133  007D22  0EFF               	movlw	255
  2134  007D24  5A76               	subwfb	sprintf@width+1,f,c
  2135  007D26  D002               	goto	l387
  2136  007D28                     l386:
  2137                           
  2138                           ;doprnt.c: 1383: else
  2139                           ;doprnt.c: 1384: width = 0;
  2140  007D28  6A75               	clrf	sprintf@width,c
  2141  007D2A  6A76               	clrf	sprintf@width+1,c
  2142  007D2C                     l387:
  2143                           
  2144                           ;doprnt.c: 1387: if(flag & 0x04) {
  2145  007D2C  A473               	btfss	sprintf@flag,2,c
  2146  007D2E  D00E               	goto	l3121
  2147                           
  2148                           ;doprnt.c: 1392: if(flag & 0x03)
  2149  007D30  C073  F060         	movff	sprintf@flag,??_sprintf
  2150  007D34  0E03               	movlw	3
  2151  007D36  1660               	andwf	??_sprintf,f,c
  2152  007D38  E001               	bz	l3113
  2153                           
  2154                           ;doprnt.c: 1393: ((*sp++ = ('-')));
  2155  007D3A  D8D2               	call	PL52	;call to abstracted procedure
  2156  007D3C                     l3113:
  2157                           
  2158                           ;doprnt.c: 1415: if(width)
  2159  007D3C  5075               	movf	sprintf@width,w,c
  2160  007D3E  1076               	iorwf	sprintf@width+1,w,c
  2161  007D40  E04E               	bz	l3141
  2162                           
  2163                           ;doprnt.c: 1417: ((*sp++ = ('0')));
  2164  007D42  D89F               	call	PL28	;call to abstracted procedure
  2165                           
  2166                           ;doprnt.c: 1418: while(--width);
  2167  007D44  0675               	decf	sprintf@width,f,c
  2168  007D46  A0D8               	btfss	status,0,c
  2169  007D48  0676               	decf	sprintf@width+1,f,c
  2170  007D4A  D7F8               	goto	l3113
  2171  007D4C                     l3121:
  2172                           
  2173                           ;doprnt.c: 1422: {
  2174                           ;doprnt.c: 1424: if(width
  2175                           ;doprnt.c: 1428: )
  2176  007D4C  5075               	movf	sprintf@width,w,c
  2177  007D4E  1076               	iorwf	sprintf@width+1,w,c
  2178  007D50  E006               	bz	l3129
  2179  007D52                     l3123:
  2180                           
  2181                           ;doprnt.c: 1430: ((*sp++ = (' ')));
  2182                           
  2183                           ;doprnt.c: 1431: while(--width);
  2184  007D52  D8BE               	call	PL48	;call to abstracted procedure
  2185  007D54  A0D8               	btfss	status,0,c
  2186  007D56  0676               	decf	sprintf@width+1,f,c
  2187  007D58  5075               	movf	sprintf@width,w,c
  2188  007D5A  1076               	iorwf	sprintf@width+1,w,c
  2189  007D5C  E1FA               	bnz	l3123
  2190  007D5E                     l3129:
  2191                           
  2192                           ;doprnt.c: 1438: if(flag & 0x03)
  2193  007D5E  C073  F060         	movff	sprintf@flag,??_sprintf
  2194  007D62  0E03               	movlw	3
  2195  007D64  1660               	andwf	??_sprintf,f,c
  2196  007D66  E03B               	bz	l3141
  2197                           
  2198                           ;doprnt.c: 1439: ((*sp++ = ('-')));
  2199  007D68  507D               	movf	sprintf@sp,w,c
  2200  007D6A  6ED9               	movwf	fsr2l,c
  2201  007D6C  6ADA               	clrf	fsr2h,c
  2202  007D6E  0E2D               	movlw	45
  2203  007D70  6EDF               	movwf	indf2,c
  2204  007D72                     l3133:
  2205  007D72  2A7D               	incf	sprintf@sp,f,c
  2206  007D74  D034               	goto	l3141
  2207  007D76                     l3135:
  2208                           
  2209                           ;doprnt.c: 1478: {
  2210                           ;doprnt.c: 1489: c = (val / dpowers[prec]) % 10 + '0';
  2211  007D76  C07B  F060         	movff	sprintf@prec,??_sprintf
  2212  007D7A  C07C  F061         	movff	sprintf@prec+1,??_sprintf+1
  2213  007D7E  90D8               	bcf	status,0,c
  2214  007D80  3660               	rlcf	??_sprintf,f,c
  2215  007D82  3661               	rlcf	??_sprintf+1,f,c
  2216  007D84  90D8               	bcf	status,0,c
  2217  007D86  3660               	rlcf	??_sprintf,f,c
  2218  007D88  3661               	rlcf	??_sprintf+1,f,c
  2219  007D8A  0E57               	movlw	low _dpowers
  2220  007D8C  2460               	addwf	??_sprintf,w,c
  2221  007D8E  6EF6               	movwf	tblptrl,c
  2222  007D90  0E7F               	movlw	high _dpowers
  2223  007D92  2061               	addwfc	??_sprintf+1,w,c
  2224  007D94  6EF7               	movwf	tblptrh,c
  2225  007D96                     	if	0	;There are less than 3 active tblptr bytes
  2226  007D96                     	endif
  2227  007D96  0009               	tblrd		*+
  2228  007D98  D85A               	call	PL24	;call to abstracted procedure
  2229  007D9A  C06D  F001         	movff	sprintf@val,___lldiv@dividend
  2230  007D9E  C06E  F002         	movff	sprintf@val+1,___lldiv@dividend+1
  2231  007DA2  C06F  F003         	movff	sprintf@val+2,___lldiv@dividend+2
  2232  007DA6  C070  F004         	movff	sprintf@val+3,___lldiv@dividend+3
  2233  007DAA  ECA6  F034         	call	___lldiv	;wreg free
  2234  007DAE  C001  F00E         	movff	?___lldiv,___llmod@dividend
  2235  007DB2  C002  F00F         	movff	?___lldiv+1,___llmod@dividend+1
  2236  007DB6  C003  F010         	movff	?___lldiv+2,___llmod@dividend+2
  2237  007DBA  C004  F011         	movff	?___lldiv+3,___llmod@dividend+3
  2238  007DBE  0E0A               	movlw	10
  2239  007DC0  6E12               	movwf	___llmod@divisor,c
  2240  007DC2  6A13               	clrf	___llmod@divisor+1,c
  2241  007DC4  6A14               	clrf	___llmod@divisor+2,c
  2242  007DC6  6A15               	clrf	___llmod@divisor+3,c
  2243  007DC8  EC41  F034         	call	___llmod	;wreg free
  2244  007DCC  500E               	movf	?___llmod,w,c
  2245  007DCE  0F30               	addlw	48
  2246  007DD0  6E7E               	movwf	sprintf@c,c
  2247                           
  2248                           ;doprnt.c: 1523: }
  2249                           ;doprnt.c: 1524: ((*sp++ = (c)));
  2250  007DD2  507D               	movf	sprintf@sp,w,c
  2251  007DD4  6ED9               	movwf	fsr2l,c
  2252  007DD6  6ADA               	clrf	fsr2h,c
  2253  007DD8  C07E  FFDF         	movff	sprintf@c,indf2
  2254  007DDC  D7CA               	goto	l3133
  2255  007DDE                     l3141:
  2256  007DDE  067B               	decf	sprintf@prec,f,c
  2257  007DE0  A0D8               	btfss	status,0,c
  2258  007DE2  067C               	decf	sprintf@prec+1,f,c
  2259  007DE4  287B               	incf	sprintf@prec,w,c
  2260  007DE6  E1C7               	bnz	l3135
  2261  007DE8  287C               	incf	sprintf@prec+1,w,c
  2262  007DEA  E1C5               	bnz	l3135
  2263  007DEC                     l3143:
  2264  007DEC  C05A  FFF6         	movff	sprintf@f,tblptrl
  2265  007DF0  D866               	call	PL42	;call to abstracted procedure
  2266  007DF2  E001 D462          	bnz	l2829
  2267  007DF6                     l3145:
  2268                           
  2269                           ;doprnt.c: 1538: *sp = 0;
  2270  007DF6  507D               	movf	sprintf@sp,w,c
  2271  007DF8  6ED9               	movwf	fsr2l,c
  2272  007DFA  6ADA               	clrf	fsr2h,c
  2273  007DFC  6ADF               	clrf	indf2,c
  2274  007DFE  0C00               	retlw	0	;funcret
  2275  007E00                     __end_of_sprintf:
  2276                           	opt stack 0
  2277  007E00                     PL6:
  2278                           	opt stack 27
  2279  007E00  507E               	movf	sprintf@c,w,c
  2280  007E02  0D04               	mullw	4
  2281  007E04  0E57               	movlw	low _dpowers
  2282  007E06  24F3               	addwf	prodl,w,c
  2283  007E08  6EF6               	movwf	tblptrl,c
  2284  007E0A  0E7F               	movlw	high _dpowers
  2285  007E0C  20F4               	addwfc	prodh,w,c
  2286  007E0E  6EF7               	movwf	tblptrh,c
  2287  007E10                     	if	0	;There are less than 3 active tblptr bytes
  2288  007E10                     	endif
  2289  007E10  0009               	tblrd		*+
  2290  007E12  0012               	return	
  2291  007E14                     __end_ofPL6:
  2292                           	opt stack 0
  2293  007E14                     PL12:
  2294                           	opt stack 27
  2295  007E14  C05A  FFF6         	movff	sprintf@f,tblptrl
  2296  007E18  C05B  FFF7         	movff	sprintf@f+1,tblptrh
  2297  007E1C                     	if	0	;tblptru may be non-zero
  2298  007E1C                     	endif
  2299  007E1C                     	if	0	;tblptru may be non-zero
  2300  007E1C                     	endif
  2301  007E1C  0008               	tblrd		*
  2302  007E1E  50F5               	movf	tablat,w,c
  2303  007E20  0012               	return	
  2304  007E22                     __end_ofPL12:
  2305                           	opt stack 0
  2306  007E22                     PL20:
  2307                           	opt stack 27
  2308  007E22  C001  F069         	movff	?___lldiv,sprintf@tmpval
  2309  007E26  C002  F06A         	movff	?___lldiv+1,sprintf@tmpval+1
  2310  007E2A  C003  F06B         	movff	?___lldiv+2,sprintf@tmpval+2
  2311  007E2E  C004  F06C         	movff	?___lldiv+3,sprintf@tmpval+3
  2312  007E32  C069  F00E         	movff	sprintf@tmpval,___llmod@dividend
  2313  007E36  C06A  F00F         	movff	sprintf@tmpval+1,___llmod@dividend+1
  2314  007E3A  C06B  F010         	movff	sprintf@tmpval+2,___llmod@dividend+2
  2315  007E3E  C06C  F011         	movff	sprintf@tmpval+3,___llmod@dividend+3
  2316  007E42  0E0A               	movlw	10
  2317  007E44  6E12               	movwf	___llmod@divisor,c
  2318  007E46  6A13               	clrf	___llmod@divisor+1,c
  2319  007E48  6A14               	clrf	___llmod@divisor+2,c
  2320  007E4A  6A15               	clrf	___llmod@divisor+3,c
  2321  007E4C  0C0A               	retlw	10
  2322  007E4E                     __end_ofPL20:
  2323                           	opt stack 0
  2324  007E4E                     PL24:
  2325                           	opt stack 27
  2326  007E4E  CFF5 F005          	movff	tablat,___lldiv@divisor
  2327  007E52  0009               	tblrd		*+
  2328  007E54  CFF5 F006          	movff	tablat,___lldiv@divisor+1
  2329  007E58  0009               	tblrd		*+
  2330  007E5A  CFF5 F007          	movff	tablat,___lldiv@divisor+2
  2331  007E5E  000A               	tblrd		*-
  2332  007E60  CFF5 F008          	movff	tablat,___lldiv@divisor+3
  2333  007E64  0012               	return	
  2334  007E66                     __end_ofPL24:
  2335                           	opt stack 0
  2336  007E66                     PL26:
  2337                           	opt stack 27
  2338  007E66  C00E  F069         	movff	?___llmod,sprintf@tmpval
  2339  007E6A  C00F  F06A         	movff	?___llmod+1,sprintf@tmpval+1
  2340  007E6E  C010  F06B         	movff	?___llmod+2,sprintf@tmpval+2
  2341  007E72  C011  F06C         	movff	?___llmod+3,sprintf@tmpval+3
  2342  007E76  507D               	movf	sprintf@sp,w,c
  2343  007E78  6ED9               	movwf	fsr2l,c
  2344  007E7A  6ADA               	clrf	fsr2h,c
  2345  007E7C  5069               	movf	sprintf@tmpval,w,c
  2346  007E7E  0F30               	addlw	48
  2347  007E80  0012               	return	
  2348  007E82                     __end_ofPL26:
  2349                           	opt stack 0
  2350  007E82                     PL28:
  2351                           	opt stack 27
  2352  007E82  507D               	movf	sprintf@sp,w,c
  2353  007E84  6ED9               	movwf	fsr2l,c
  2354  007E86  6ADA               	clrf	fsr2h,c
  2355  007E88  0E30               	movlw	48
  2356  007E8A  6EDF               	movwf	indf2,c
  2357  007E8C  2A7D               	incf	sprintf@sp,f,c
  2358  007E8E  0C30               	retlw	48
  2359  007E90                     __end_ofPL28:
  2360                           	opt stack 0
  2361  007E90                     PL32:
  2362                           	opt stack 27
  2363  007E90  50F5               	movf	tablat,w,c
  2364  007E92  5C6D               	subwf	sprintf@val,w,c
  2365  007E94  0009               	tblrd		*+
  2366  007E96  50F5               	movf	tablat,w,c
  2367  007E98  586E               	subwfb	sprintf@val+1,w,c
  2368  007E9A  0009               	tblrd		*+
  2369  007E9C  50F5               	movf	tablat,w,c
  2370  007E9E  586F               	subwfb	sprintf@val+2,w,c
  2371  007EA0  0009               	tblrd		*+
  2372  007EA2  50F5               	movf	tablat,w,c
  2373  007EA4  5870               	subwfb	sprintf@val+3,w,c
  2374  007EA6  0012               	return	
  2375  007EA8                     __end_ofPL32:
  2376                           	opt stack 0
  2377  007EA8                     PL36:
  2378                           	opt stack 27
  2379  007EA8  C069  F001         	movff	sprintf@tmpval,___flge@ff1
  2380  007EAC  C06A  F002         	movff	sprintf@tmpval+1,___flge@ff1+1
  2381  007EB0  C06B  F003         	movff	sprintf@tmpval+2,___flge@ff1+2
  2382  007EB4  C06C  F004         	movff	sprintf@tmpval+3,___flge@ff1+3
  2383  007EB8  6A05               	clrf	___flge@ff2,c
  2384  007EBA  6A06               	clrf	___flge@ff2+1,c
  2385  007EBC  0012               	return	
  2386  007EBE                     __end_ofPL36:
  2387                           	opt stack 0
  2388  007EBE                     PL42:
  2389                           	opt stack 27
  2390  007EBE  C05B  FFF7         	movff	sprintf@f+1,tblptrh
  2391  007EC2  4A5A               	infsnz	sprintf@f,f,c
  2392  007EC4  2A5B               	incf	sprintf@f+1,f,c
  2393  007EC6                     	if	0	;tblptru may be non-zero
  2394  007EC6                     	endif
  2395  007EC6                     	if	0	;tblptru may be non-zero
  2396  007EC6                     	endif
  2397  007EC6  0008               	tblrd		*
  2398  007EC8  CFF5 F07E          	movff	tablat,sprintf@c
  2399  007ECC  507E               	movf	sprintf@c,w,c
  2400  007ECE  0012               	return	
  2401  007ED0                     __end_ofPL42:
  2402                           	opt stack 0
  2403  007ED0                     PL48:
  2404                           	opt stack 27
  2405  007ED0  507D               	movf	sprintf@sp,w,c
  2406  007ED2  6ED9               	movwf	fsr2l,c
  2407  007ED4  6ADA               	clrf	fsr2h,c
  2408  007ED6  0E20               	movlw	32
  2409  007ED8  6EDF               	movwf	indf2,c
  2410  007EDA  2A7D               	incf	sprintf@sp,f,c
  2411  007EDC  0675               	decf	sprintf@width,f,c
  2412  007EDE  0C20               	retlw	32
  2413  007EE0                     __end_ofPL48:
  2414                           	opt stack 0
  2415  007EE0                     PL52:
  2416                           	opt stack 27
  2417  007EE0  507D               	movf	sprintf@sp,w,c
  2418  007EE2  6ED9               	movwf	fsr2l,c
  2419  007EE4  6ADA               	clrf	fsr2h,c
  2420  007EE6  0E2D               	movlw	45
  2421  007EE8  6EDF               	movwf	indf2,c
  2422  007EEA  2A7D               	incf	sprintf@sp,f,c
  2423  007EEC  0C2D               	retlw	45
  2424  007EEE                     __end_ofPL52:
  2425                           	opt stack 0
  2426                           tblptru	equ	0xFF8
  2427                           tblptrh	equ	0xFF7
  2428                           tblptrl	equ	0xFF6
  2429                           tablat	equ	0xFF5
  2430                           prodh	equ	0xFF4
  2431                           prodl	equ	0xFF3
  2432                           indf0	equ	0xFEF
  2433                           fsr0h	equ	0xFEA
  2434                           fsr0l	equ	0xFE9
  2435                           wreg	equ	0xFE8
  2436                           indf2	equ	0xFDF
  2437                           postinc2	equ	0xFDE
  2438                           postdec2	equ	0xFDD
  2439                           fsr2h	equ	0xFDA
  2440                           fsr2l	equ	0xFD9
  2441                           status	equ	0xFD8
  2442                           
  2443 ;; *************** function _scale *****************
  2444 ;; Defined at:
  2445 ;;		line 425 in file "C:\Program Files (x86)\Microchip\xc8\v1.34\sources\common\doprnt.c"
  2446 ;; Parameters:    Size  Location     Type
  2447 ;;  scl             1    wreg     char 
  2448 ;; Auto vars:     Size  Location     Type
  2449 ;;  scl             1   37[COMRAM] char 
  2450 ;; Return value:  Size  Location     Type
  2451 ;;                  4   29[COMRAM] char 
  2452 ;; Registers used:
  2453 ;;		wreg, status,2, status,0, tblptrl, tblptrh, tblptru, prodl, prodh, cstack
  2454 ;; Tracked objects:
  2455 ;;		On entry : 0/0
  2456 ;;		On exit  : 0/0
  2457 ;;		Unchanged: 0/0
  2458 ;; Data sizes:     COMRAM   BANK0   BANK1   BANK2   BANK3   BANK4   BANK5
  2459 ;;      Params:         4       0       0       0       0       0       0
  2460 ;;      Locals:         5       0       0       0       0       0       0
  2461 ;;      Temps:          0       0       0       0       0       0       0
  2462 ;;      Totals:         9       0       0       0       0       0       0
  2463 ;;Total ram usage:        9 bytes
  2464 ;; Hardware stack levels used:    1
  2465 ;; Hardware stack levels required when called:    2
  2466 ;; This function calls:
  2467 ;;		___awdiv
  2468 ;;		___awmod
  2469 ;;		___flmul
  2470 ;; This function is called by:
  2471 ;;		_sprintf
  2472 ;; This function uses a non-reentrant model
  2473 ;;
  2474                           
  2475                           	psect	text2
  2476  007432                     __ptext2:
  2477                           	opt stack 0
  2478  007432                     _scale:
  2479                           	opt stack 27
  2480                           
  2481                           ;incstack = 0
  2482                           ;scale@scl stored from wreg
  2483  007432  6E26               	movwf	scale@scl,c
  2484                           
  2485                           ;doprnt.c: 428: if(scl < 0) {
  2486  007434  AE26               	btfss	scale@scl,7,c
  2487  007436  D064               	goto	l2495
  2488                           
  2489                           ;doprnt.c: 429: scl = -scl;
  2490  007438  6C26               	negf	scale@scl,c
  2491                           
  2492                           ;doprnt.c: 430: if(scl>=110)
  2493  00743A  5026               	movf	scale@scl,w,c
  2494  00743C  0A80               	xorlw	128
  2495  00743E  0F12               	addlw	-238
  2496  007440  E337               	bnc	l2485
  2497                           
  2498                           ;doprnt.c: 431: return _npowers_[scl/100+18] * _npowers_[(scl%100)/10+9] * _npowers_[scl
      +                          %10];
  2499  007442  6A0A               	clrf	___awdiv@divisor+1,c
  2500  007444  0E0A               	movlw	10
  2501  007446  6E09               	movwf	___awdiv@divisor,c
  2502  007448  6A04               	clrf	___awmod@divisor+1,c
  2503  00744A  0E64               	movlw	100
  2504  00744C  D928               	call	PL34	;call to abstracted procedure
  2505  00744E  BE01               	btfsc	___awmod@dividend,7,c
  2506  007450  0602               	decf	___awmod@dividend+1,f,c
  2507  007452  EC72  F034         	call	___awmod	;wreg free
  2508  007456  C001  F007         	movff	?___awmod,___awdiv@dividend
  2509  00745A  C002  F008         	movff	?___awmod+1,___awdiv@dividend+1
  2510  00745E  ECE1  F034         	call	___awdiv	;wreg free
  2511  007462  D8E3               	call	PL8	;call to abstracted procedure
  2512  007464  0EEF               	movlw	low __npowers_
  2513  007466  2407               	addwf	?___awdiv,w,c
  2514  007468  6EF6               	movwf	tblptrl,c
  2515  00746A  0E7E               	movlw	high __npowers_
  2516  00746C  2008               	addwfc	?___awdiv+1,w,c
  2517  00746E  D8C1               	call	PL2	;call to abstracted procedure
  2518  007470  6A0A               	clrf	___awdiv@divisor+1,c
  2519  007472  0E64               	movlw	100
  2520  007474  D919               	call	PL50	;call to abstracted procedure
  2521  007476  BE07               	btfsc	___awdiv@dividend,7,c
  2522  007478  0608               	decf	___awdiv@dividend+1,f,c
  2523  00747A  ECE1  F034         	call	___awdiv	;wreg free
  2524  00747E  90D8               	bcf	status,0,c
  2525  007480  D8E6               	call	PL16	;call to abstracted procedure
  2526  007482  0EEF               	movlw	low __npowers_
  2527  007484  2407               	addwf	?___awdiv,w,c
  2528  007486  6EF6               	movwf	tblptrl,c
  2529  007488  0E7E               	movlw	high __npowers_
  2530  00748A  2008               	addwfc	?___awdiv+1,w,c
  2531  00748C  D8C0               	call	PL4	;call to abstracted procedure
  2532  00748E  ECBE  F035         	call	___flmul	;wreg free
  2533                           
  2534                           ;doprnt.c: 431: return _npowers_[scl/100+18] * _npowers_[(scl%100)/10+9] * _npowers_[scl
      +                          %10];
  2535  007492  D8E7               	call	PL18	;call to abstracted procedure
  2536  007494  BE01               	btfsc	___awmod@dividend,7,c
  2537  007496  0602               	decf	___awmod@dividend+1,f,c
  2538  007498  EC72  F034         	call	___awmod	;wreg free
  2539  00749C  D8D1               	call	PL10	;call to abstracted procedure
  2540  00749E  0EEF               	movlw	low __npowers_
  2541  0074A0  2401               	addwf	?___awmod,w,c
  2542  0074A2  6EF6               	movwf	tblptrl,c
  2543  0074A4  0E7E               	movlw	high __npowers_
  2544  0074A6  2002               	addwfc	?___awmod+1,w,c
  2545  0074A8  D8A4               	call	PL2	;call to abstracted procedure
  2546  0074AA  ECBE  F035         	call	___flmul	;wreg free
  2547  0074AE  D083               	goto	L6
  2548  0074B0                     l2485:
  2549                           
  2550                           ;doprnt.c: 432: else if(scl > 10)
  2551  0074B0  5026               	movf	scale@scl,w,c
  2552  0074B2  0A80               	xorlw	128
  2553  0074B4  0F75               	addlw	-139
  2554  0074B6  E31D               	bnc	l2491
  2555                           
  2556                           ;doprnt.c: 433: return _npowers_[scl/10+9] * _npowers_[scl%10];
  2557  0074B8  6A0A               	clrf	___awdiv@divisor+1,c
  2558  0074BA  0E0A               	movlw	10
  2559  0074BC  D8F5               	call	PL50	;call to abstracted procedure
  2560  0074BE  BE07               	btfsc	___awdiv@dividend,7,c
  2561  0074C0  0608               	decf	___awdiv@dividend+1,f,c
  2562  0074C2  ECE1  F034         	call	___awdiv	;wreg free
  2563  0074C6  D8B1               	call	PL8	;call to abstracted procedure
  2564  0074C8  0EEF               	movlw	low __npowers_
  2565  0074CA  2407               	addwf	?___awdiv,w,c
  2566  0074CC  6EF6               	movwf	tblptrl,c
  2567  0074CE  0E7E               	movlw	high __npowers_
  2568  0074D0  2008               	addwfc	?___awdiv+1,w,c
  2569  0074D2  D89D               	call	PL4	;call to abstracted procedure
  2570  0074D4  D8DD               	call	PL30	;call to abstracted procedure
  2571  0074D6  BE01               	btfsc	___awmod@dividend,7,c
  2572  0074D8  0602               	decf	___awmod@dividend+1,f,c
  2573  0074DA  EC72  F034         	call	___awmod	;wreg free
  2574  0074DE  D8B0               	call	PL10	;call to abstracted procedure
  2575  0074E0  0EEF               	movlw	low __npowers_
  2576  0074E2  2401               	addwf	?___awmod,w,c
  2577  0074E4  6EF6               	movwf	tblptrl,c
  2578  0074E6  0E7E               	movlw	high __npowers_
  2579  0074E8  2002               	addwfc	?___awmod+1,w,c
  2580  0074EA  D883               	call	PL2	;call to abstracted procedure
  2581  0074EC  ECBE  F035         	call	___flmul	;wreg free
  2582  0074F0  D062               	goto	L6
  2583  0074F2                     l2491:
  2584                           
  2585                           ;doprnt.c: 434: return _npowers_[scl];
  2586  0074F2  5026               	movf	scale@scl,w,c
  2587  0074F4  0D04               	mullw	4
  2588  0074F6  0EEF               	movlw	low __npowers_
  2589  0074F8  24F3               	addwf	prodl,w,c
  2590  0074FA  6EF6               	movwf	tblptrl,c
  2591  0074FC  0E7E               	movlw	high __npowers_
  2592  0074FE  D06A               	goto	L5
  2593  007500                     l2495:
  2594                           
  2595                           ;doprnt.c: 435: }
  2596                           ;doprnt.c: 436: if(scl>=110)
  2597  007500  5026               	movf	scale@scl,w,c
  2598  007502  0A80               	xorlw	128
  2599  007504  0F12               	addlw	-238
  2600  007506  E337               	bnc	l2503
  2601                           
  2602                           ;doprnt.c: 437: return _powers_[scl/100+18] * _powers_[(scl%100)/10+9] * _powers_[scl%10
      +                          ];
  2603  007508  6A0A               	clrf	___awdiv@divisor+1,c
  2604  00750A  0E0A               	movlw	10
  2605  00750C  6E09               	movwf	___awdiv@divisor,c
  2606  00750E  6A04               	clrf	___awmod@divisor+1,c
  2607  007510  0E64               	movlw	100
  2608  007512  D8C5               	call	PL34	;call to abstracted procedure
  2609  007514  BE01               	btfsc	___awmod@dividend,7,c
  2610  007516  0602               	decf	___awmod@dividend+1,f,c
  2611  007518  EC72  F034         	call	___awmod	;wreg free
  2612  00751C  C001  F007         	movff	?___awmod,___awdiv@dividend
  2613  007520  C002  F008         	movff	?___awmod+1,___awdiv@dividend+1
  2614  007524  ECE1  F034         	call	___awdiv	;wreg free
  2615  007528  D880               	call	PL8	;call to abstracted procedure
  2616  00752A  0E23               	movlw	low __powers_
  2617  00752C  2407               	addwf	?___awdiv,w,c
  2618  00752E  6EF6               	movwf	tblptrl,c
  2619  007530  0E7F               	movlw	high __powers_
  2620  007532  2008               	addwfc	?___awdiv+1,w,c
  2621  007534  D85E               	call	PL2	;call to abstracted procedure
  2622  007536  6A0A               	clrf	___awdiv@divisor+1,c
  2623  007538  0E64               	movlw	100
  2624  00753A  D8B6               	call	PL50	;call to abstracted procedure
  2625  00753C  BE07               	btfsc	___awdiv@dividend,7,c
  2626  00753E  0608               	decf	___awdiv@dividend+1,f,c
  2627  007540  ECE1  F034         	call	___awdiv	;wreg free
  2628  007544  90D8               	bcf	status,0,c
  2629  007546  D883               	call	PL16	;call to abstracted procedure
  2630  007548  0E23               	movlw	low __powers_
  2631  00754A  2407               	addwf	?___awdiv,w,c
  2632  00754C  6EF6               	movwf	tblptrl,c
  2633  00754E  0E7F               	movlw	high __powers_
  2634  007550  2008               	addwfc	?___awdiv+1,w,c
  2635  007552  D85D               	call	PL4	;call to abstracted procedure
  2636  007554  ECBE  F035         	call	___flmul	;wreg free
  2637                           
  2638                           ;doprnt.c: 437: return _powers_[scl/100+18] * _powers_[(scl%100)/10+9] * _powers_[scl%10
      +                          ];
  2639  007558  D884               	call	PL18	;call to abstracted procedure
  2640  00755A  BE01               	btfsc	___awmod@dividend,7,c
  2641  00755C  0602               	decf	___awmod@dividend+1,f,c
  2642  00755E  EC72  F034         	call	___awmod	;wreg free
  2643  007562  D86E               	call	PL10	;call to abstracted procedure
  2644  007564  0E23               	movlw	low __powers_
  2645  007566  2401               	addwf	?___awmod,w,c
  2646  007568  6EF6               	movwf	tblptrl,c
  2647  00756A  0E7F               	movlw	high __powers_
  2648  00756C  2002               	addwfc	?___awmod+1,w,c
  2649  00756E  D841               	call	PL2	;call to abstracted procedure
  2650  007570  ECBE  F035         	call	___flmul	;wreg free
  2651  007574  D020               	goto	L6
  2652  007576                     l2503:
  2653                           
  2654                           ;doprnt.c: 438: else if(scl > 10)
  2655  007576  5026               	movf	scale@scl,w,c
  2656  007578  0A80               	xorlw	128
  2657  00757A  0F75               	addlw	-139
  2658  00757C  E325               	bnc	l2509
  2659                           
  2660                           ;doprnt.c: 439: return _powers_[scl/10+9] * _powers_[scl%10];
  2661  00757E  6A0A               	clrf	___awdiv@divisor+1,c
  2662  007580  0E0A               	movlw	10
  2663  007582  D892               	call	PL50	;call to abstracted procedure
  2664  007584  BE07               	btfsc	___awdiv@dividend,7,c
  2665  007586  0608               	decf	___awdiv@dividend+1,f,c
  2666  007588  ECE1  F034         	call	___awdiv	;wreg free
  2667  00758C  D84E               	call	PL8	;call to abstracted procedure
  2668  00758E  0E23               	movlw	low __powers_
  2669  007590  2407               	addwf	?___awdiv,w,c
  2670  007592  6EF6               	movwf	tblptrl,c
  2671  007594  0E7F               	movlw	high __powers_
  2672  007596  2008               	addwfc	?___awdiv+1,w,c
  2673  007598  D83A               	call	PL4	;call to abstracted procedure
  2674  00759A  D87A               	call	PL30	;call to abstracted procedure
  2675  00759C  BE01               	btfsc	___awmod@dividend,7,c
  2676  00759E  0602               	decf	___awmod@dividend+1,f,c
  2677  0075A0  EC72  F034         	call	___awmod	;wreg free
  2678  0075A4  D84D               	call	PL10	;call to abstracted procedure
  2679  0075A6  0E23               	movlw	low __powers_
  2680  0075A8  2401               	addwf	?___awmod,w,c
  2681  0075AA  6EF6               	movwf	tblptrl,c
  2682  0075AC  0E7F               	movlw	high __powers_
  2683  0075AE  2002               	addwfc	?___awmod+1,w,c
  2684  0075B0  D820               	call	PL2	;call to abstracted procedure
  2685  0075B2  ECBE  F035         	call	___flmul	;wreg free
  2686  0075B6                     L6:
  2687  0075B6  C00F  F01E         	movff	?___flmul,?_scale
  2688  0075BA  C010  F01F         	movff	?___flmul+1,?_scale+1
  2689  0075BE  C011  F020         	movff	?___flmul+2,?_scale+2
  2690  0075C2  C012  F021         	movff	?___flmul+3,?_scale+3
  2691  0075C6  D014               	goto	l292
  2692  0075C8                     l2509:
  2693                           
  2694                           ;doprnt.c: 440: return _powers_[scl];
  2695  0075C8  5026               	movf	scale@scl,w,c
  2696  0075CA  0D04               	mullw	4
  2697  0075CC  0E23               	movlw	low __powers_
  2698  0075CE  24F3               	addwf	prodl,w,c
  2699  0075D0  6EF6               	movwf	tblptrl,c
  2700  0075D2  0E7F               	movlw	high __powers_
  2701  0075D4                     L5:
  2702  0075D4  20F4               	addwfc	prodh,w,c
  2703  0075D6  6EF7               	movwf	tblptrh,c
  2704  0075D8                     	if	0	;There are less than 3 active tblptr bytes
  2705  0075D8                     	endif
  2706  0075D8  0009               	tblrd		*+
  2707  0075DA  CFF5 F01E          	movff	tablat,?_scale
  2708  0075DE  0009               	tblrd		*+
  2709  0075E0  CFF5 F01F          	movff	tablat,?_scale+1
  2710  0075E4  0009               	tblrd		*+
  2711  0075E6  CFF5 F020          	movff	tablat,?_scale+2
  2712  0075EA  000A               	tblrd		*-
  2713  0075EC  CFF5 F021          	movff	tablat,?_scale+3
  2714  0075F0                     l292:
  2715  0075F0  0012               	return		;funcret
  2716  0075F2                     __end_of_scale:
  2717                           	opt stack 0
  2718  0075F2                     PL2:
  2719                           	opt stack 27
  2720  0075F2  6EF7               	movwf	tblptrh,c
  2721  0075F4                     	if	0	;There are less than 3 active tblptr bytes
  2722  0075F4                     	endif
  2723  0075F4  0009               	tblrd		*+
  2724  0075F6  CFF5 F013          	movff	tablat,___flmul@f2
  2725  0075FA  0009               	tblrd		*+
  2726  0075FC  CFF5 F014          	movff	tablat,___flmul@f2+1
  2727  007600  0009               	tblrd		*+
  2728  007602  CFF5 F015          	movff	tablat,___flmul@f2+2
  2729  007606  000A               	tblrd		*-
  2730  007608  CFF5 F016          	movff	tablat,___flmul@f2+3
  2731  00760C  0012               	return	
  2732  00760E                     __end_ofPL2:
  2733                           	opt stack 0
  2734  00760E                     PL4:
  2735                           	opt stack 27
  2736  00760E  6EF7               	movwf	tblptrh,c
  2737  007610                     	if	0	;There are less than 3 active tblptr bytes
  2738  007610                     	endif
  2739  007610  0009               	tblrd		*+
  2740  007612  CFF5 F00F          	movff	tablat,___flmul@f1
  2741  007616  0009               	tblrd		*+
  2742  007618  CFF5 F010          	movff	tablat,___flmul@f1+1
  2743  00761C  0009               	tblrd		*+
  2744  00761E  CFF5 F011          	movff	tablat,___flmul@f1+2
  2745  007622  000A               	tblrd		*-
  2746  007624  CFF5 F012          	movff	tablat,___flmul@f1+3
  2747  007628  0012               	return	
  2748  00762A                     __end_ofPL4:
  2749                           	opt stack 0
  2750  00762A                     PL8:
  2751                           	opt stack 27
  2752  00762A  90D8               	bcf	status,0,c
  2753  00762C  3607               	rlcf	?___awdiv,f,c
  2754  00762E  3608               	rlcf	?___awdiv+1,f,c
  2755  007630  90D8               	bcf	status,0,c
  2756  007632  3607               	rlcf	?___awdiv,f,c
  2757  007634  3608               	rlcf	?___awdiv+1,f,c
  2758  007636  0E24               	movlw	36
  2759  007638  2607               	addwf	?___awdiv,f,c
  2760  00763A  0E00               	movlw	0
  2761  00763C  2208               	addwfc	?___awdiv+1,f,c
  2762  00763E  0C00               	retlw	0
  2763  007640                     __end_ofPL8:
  2764                           	opt stack 0
  2765  007640                     PL10:
  2766                           	opt stack 27
  2767  007640  90D8               	bcf	status,0,c
  2768  007642  3601               	rlcf	?___awmod,f,c
  2769  007644  3602               	rlcf	?___awmod+1,f,c
  2770  007646  90D8               	bcf	status,0,c
  2771  007648  3601               	rlcf	?___awmod,f,c
  2772  00764A  3602               	rlcf	?___awmod+1,f,c
  2773  00764C  0012               	return	
  2774  00764E                     __end_ofPL10:
  2775                           	opt stack 0
  2776  00764E                     PL16:
  2777                           	opt stack 27
  2778  00764E  3607               	rlcf	?___awdiv,f,c
  2779  007650  3608               	rlcf	?___awdiv+1,f,c
  2780  007652  90D8               	bcf	status,0,c
  2781  007654  3607               	rlcf	?___awdiv,f,c
  2782  007656  3608               	rlcf	?___awdiv+1,f,c
  2783  007658  0E48               	movlw	72
  2784  00765A  2607               	addwf	?___awdiv,f,c
  2785  00765C  0E00               	movlw	0
  2786  00765E  2208               	addwfc	?___awdiv+1,f,c
  2787  007660  0C00               	retlw	0
  2788  007662                     __end_ofPL16:
  2789                           	opt stack 0
  2790  007662                     PL18:
  2791                           	opt stack 27
  2792  007662  C00F  F022         	movff	?___flmul,_scale$1442
  2793  007666  C010  F023         	movff	?___flmul+1,_scale$1442+1
  2794  00766A  C011  F024         	movff	?___flmul+2,_scale$1442+2
  2795  00766E  C012  F025         	movff	?___flmul+3,_scale$1442+3
  2796  007672  C022  F00F         	movff	_scale$1442,___flmul@f1
  2797  007676  C023  F010         	movff	_scale$1442+1,___flmul@f1+1
  2798  00767A  C024  F011         	movff	_scale$1442+2,___flmul@f1+2
  2799  00767E  C025  F012         	movff	_scale$1442+3,___flmul@f1+3
  2800  007682  6A04               	clrf	___awmod@divisor+1,c
  2801  007684  0E0A               	movlw	10
  2802  007686  6E03               	movwf	___awmod@divisor,c
  2803  007688  5026               	movf	scale@scl,w,c
  2804  00768A  6E01               	movwf	___awmod@dividend,c
  2805  00768C  6A02               	clrf	___awmod@dividend+1,c
  2806  00768E  0012               	return	
  2807  007690                     __end_ofPL18:
  2808                           	opt stack 0
  2809  007690                     PL30:
  2810                           	opt stack 27
  2811  007690  6A04               	clrf	___awmod@divisor+1,c
  2812  007692  0E0A               	movlw	10
  2813  007694  6E03               	movwf	___awmod@divisor,c
  2814  007696  5026               	movf	scale@scl,w,c
  2815  007698  6E01               	movwf	___awmod@dividend,c
  2816  00769A  6A02               	clrf	___awmod@dividend+1,c
  2817  00769C  0012               	return	
  2818  00769E                     __end_ofPL30:
  2819                           	opt stack 0
  2820  00769E                     PL34:
  2821                           	opt stack 27
  2822  00769E  6E03               	movwf	___awmod@divisor,c
  2823  0076A0  5026               	movf	scale@scl,w,c
  2824  0076A2  6E01               	movwf	___awmod@dividend,c
  2825  0076A4  6A02               	clrf	___awmod@dividend+1,c
  2826  0076A6  0012               	return	
  2827  0076A8                     __end_ofPL34:
  2828                           	opt stack 0
  2829  0076A8                     PL50:
  2830                           	opt stack 27
  2831  0076A8  6E09               	movwf	___awdiv@divisor,c
  2832  0076AA  5026               	movf	scale@scl,w,c
  2833  0076AC  6E07               	movwf	___awdiv@dividend,c
  2834  0076AE  6A08               	clrf	___awdiv@dividend+1,c
  2835  0076B0  0012               	return	
  2836  0076B2                     __end_ofPL50:
  2837                           	opt stack 0
  2838                           tblptru	equ	0xFF8
  2839                           tblptrh	equ	0xFF7
  2840                           tblptrl	equ	0xFF6
  2841                           tablat	equ	0xFF5
  2842                           prodh	equ	0xFF4
  2843                           prodl	equ	0xFF3
  2844                           indf0	equ	0xFEF
  2845                           fsr0h	equ	0xFEA
  2846                           fsr0l	equ	0xFE9
  2847                           wreg	equ	0xFE8
  2848                           indf2	equ	0xFDF
  2849                           postinc2	equ	0xFDE
  2850                           postdec2	equ	0xFDD
  2851                           fsr2h	equ	0xFDA
  2852                           fsr2l	equ	0xFD9
  2853                           status	equ	0xFD8
  2854                           
  2855 ;; *************** function ___awmod *****************
  2856 ;; Defined at:
  2857 ;;		line 8 in file "C:\Program Files (x86)\Microchip\xc8\v1.34\sources\common\awmod.c"
  2858 ;; Parameters:    Size  Location     Type
  2859 ;;  dividend        2    0[COMRAM] int 
  2860 ;;  divisor         2    2[COMRAM] int 
  2861 ;; Auto vars:     Size  Location     Type
  2862 ;;  sign            1    5[COMRAM] unsigned char 
  2863 ;;  counter         1    4[COMRAM] unsigned char 
  2864 ;; Return value:  Size  Location     Type
  2865 ;;                  2    0[COMRAM] int 
  2866 ;; Registers used:
  2867 ;;		wreg, status,2, status,0
  2868 ;; Tracked objects:
  2869 ;;		On entry : 0/0
  2870 ;;		On exit  : 0/0
  2871 ;;		Unchanged: 0/0
  2872 ;; Data sizes:     COMRAM   BANK0   BANK1   BANK2   BANK3   BANK4   BANK5
  2873 ;;      Params:         4       0       0       0       0       0       0
  2874 ;;      Locals:         2       0       0       0       0       0       0
  2875 ;;      Temps:          0       0       0       0       0       0       0
  2876 ;;      Totals:         6       0       0       0       0       0       0
  2877 ;;Total ram usage:        6 bytes
  2878 ;; Hardware stack levels used:    1
  2879 ;; This function calls:
  2880 ;;		Nothing
  2881 ;; This function is called by:
  2882 ;;		_scale
  2883 ;; This function uses a non-reentrant model
  2884 ;;
  2885                           
  2886                           	psect	text3
  2887  0068E4                     __ptext3:
  2888                           	opt stack 0
  2889  0068E4                     ___awmod:
  2890                           	opt stack 28
  2891                           
  2892                           ;incstack = 0
  2893  0068E4  6A06               	clrf	___awmod@sign,c
  2894  0068E6  AE02               	btfss	___awmod@dividend+1,7,c
  2895  0068E8  D006               	goto	l2327
  2896  0068EA  6C01               	negf	___awmod@dividend,c
  2897  0068EC  1E02               	comf	___awmod@dividend+1,f,c
  2898  0068EE  B0D8               	btfsc	status,0,c
  2899  0068F0  2A02               	incf	___awmod@dividend+1,f,c
  2900  0068F2  0E01               	movlw	1
  2901  0068F4  6E06               	movwf	___awmod@sign,c
  2902  0068F6                     l2327:
  2903  0068F6  AE04               	btfss	___awmod@divisor+1,7,c
  2904  0068F8  D004               	goto	l2331
  2905  0068FA  6C03               	negf	___awmod@divisor,c
  2906  0068FC  1E04               	comf	___awmod@divisor+1,f,c
  2907  0068FE  B0D8               	btfsc	status,0,c
  2908  006900  2A04               	incf	___awmod@divisor+1,f,c
  2909  006902                     l2331:
  2910  006902  5003               	movf	___awmod@divisor,w,c
  2911  006904  1004               	iorwf	___awmod@divisor+1,w,c
  2912  006906  E017               	bz	l2347
  2913  006908  0E01               	movlw	1
  2914  00690A  6E05               	movwf	___awmod@counter,c
  2915  00690C  D004               	goto	l2337
  2916  00690E                     l2335:
  2917  00690E  90D8               	bcf	status,0,c
  2918  006910  3603               	rlcf	___awmod@divisor,f,c
  2919  006912  3604               	rlcf	___awmod@divisor+1,f,c
  2920  006914  2A05               	incf	___awmod@counter,f,c
  2921  006916                     l2337:
  2922  006916  AE04               	btfss	___awmod@divisor+1,7,c
  2923  006918  D7FA               	goto	l2335
  2924  00691A                     l2339:
  2925  00691A  5003               	movf	___awmod@divisor,w,c
  2926  00691C  5C01               	subwf	___awmod@dividend,w,c
  2927  00691E  5004               	movf	___awmod@divisor+1,w,c
  2928  006920  5802               	subwfb	___awmod@dividend+1,w,c
  2929  006922  E304               	bnc	l2343
  2930  006924  5003               	movf	___awmod@divisor,w,c
  2931  006926  5E01               	subwf	___awmod@dividend,f,c
  2932  006928  5004               	movf	___awmod@divisor+1,w,c
  2933  00692A  5A02               	subwfb	___awmod@dividend+1,f,c
  2934  00692C                     l2343:
  2935  00692C  90D8               	bcf	status,0,c
  2936  00692E  3204               	rrcf	___awmod@divisor+1,f,c
  2937  006930  3203               	rrcf	___awmod@divisor,f,c
  2938  006932  2E05               	decfsz	___awmod@counter,f,c
  2939  006934  D7F2               	goto	l2339
  2940  006936                     l2347:
  2941  006936  5006               	movf	___awmod@sign,w,c
  2942  006938  E004               	bz	l2351
  2943  00693A  6C01               	negf	___awmod@dividend,c
  2944  00693C  1E02               	comf	___awmod@dividend+1,f,c
  2945  00693E  B0D8               	btfsc	status,0,c
  2946  006940  2A02               	incf	___awmod@dividend+1,f,c
  2947  006942                     l2351:
  2948  006942  C001  F001         	movff	___awmod@dividend,?___awmod
  2949  006946  C002  F002         	movff	___awmod@dividend+1,?___awmod+1
  2950  00694A  0012               	return		;funcret
  2951  00694C                     __end_of___awmod:
  2952                           	opt stack 0
  2953                           tblptru	equ	0xFF8
  2954                           tblptrh	equ	0xFF7
  2955                           tblptrl	equ	0xFF6
  2956                           tablat	equ	0xFF5
  2957                           prodh	equ	0xFF4
  2958                           prodl	equ	0xFF3
  2959                           indf0	equ	0xFEF
  2960                           fsr0h	equ	0xFEA
  2961                           fsr0l	equ	0xFE9
  2962                           wreg	equ	0xFE8
  2963                           indf2	equ	0xFDF
  2964                           postinc2	equ	0xFDE
  2965                           postdec2	equ	0xFDD
  2966                           fsr2h	equ	0xFDA
  2967                           fsr2l	equ	0xFD9
  2968                           status	equ	0xFD8
  2969                           
  2970 ;; *************** function ___awdiv *****************
  2971 ;; Defined at:
  2972 ;;		line 8 in file "C:\Program Files (x86)\Microchip\xc8\v1.34\sources\common\awdiv.c"
  2973 ;; Parameters:    Size  Location     Type
  2974 ;;  dividend        2    6[COMRAM] int 
  2975 ;;  divisor         2    8[COMRAM] int 
  2976 ;; Auto vars:     Size  Location     Type
  2977 ;;  quotient        2   12[COMRAM] int 
  2978 ;;  sign            1   11[COMRAM] unsigned char 
  2979 ;;  counter         1   10[COMRAM] unsigned char 
  2980 ;; Return value:  Size  Location     Type
  2981 ;;                  2    6[COMRAM] int 
  2982 ;; Registers used:
  2983 ;;		wreg, status,2, status,0
  2984 ;; Tracked objects:
  2985 ;;		On entry : 0/0
  2986 ;;		On exit  : 0/0
  2987 ;;		Unchanged: 0/0
  2988 ;; Data sizes:     COMRAM   BANK0   BANK1   BANK2   BANK3   BANK4   BANK5
  2989 ;;      Params:         4       0       0       0       0       0       0
  2990 ;;      Locals:         4       0       0       0       0       0       0
  2991 ;;      Temps:          0       0       0       0       0       0       0
  2992 ;;      Totals:         8       0       0       0       0       0       0
  2993 ;;Total ram usage:        8 bytes
  2994 ;; Hardware stack levels used:    1
  2995 ;; This function calls:
  2996 ;;		Nothing
  2997 ;; This function is called by:
  2998 ;;		_scale
  2999 ;;		_sprintf
  3000 ;; This function uses a non-reentrant model
  3001 ;;
  3002                           
  3003                           	psect	text4
  3004  0069C2                     __ptext4:
  3005                           	opt stack 0
  3006  0069C2                     ___awdiv:
  3007                           	opt stack 28
  3008                           
  3009                           ;incstack = 0
  3010  0069C2  6A0C               	clrf	___awdiv@sign,c
  3011  0069C4  AE0A               	btfss	___awdiv@divisor+1,7,c
  3012  0069C6  D006               	goto	l2283
  3013  0069C8  6C09               	negf	___awdiv@divisor,c
  3014  0069CA  1E0A               	comf	___awdiv@divisor+1,f,c
  3015  0069CC  B0D8               	btfsc	status,0,c
  3016  0069CE  2A0A               	incf	___awdiv@divisor+1,f,c
  3017  0069D0  0E01               	movlw	1
  3018  0069D2  6E0C               	movwf	___awdiv@sign,c
  3019  0069D4                     l2283:
  3020  0069D4  AE08               	btfss	___awdiv@dividend+1,7,c
  3021  0069D6  D006               	goto	l2289
  3022  0069D8  6C07               	negf	___awdiv@dividend,c
  3023  0069DA  1E08               	comf	___awdiv@dividend+1,f,c
  3024  0069DC  B0D8               	btfsc	status,0,c
  3025  0069DE  2A08               	incf	___awdiv@dividend+1,f,c
  3026  0069E0  0E01               	movlw	1
  3027  0069E2  1A0C               	xorwf	___awdiv@sign,f,c
  3028  0069E4                     l2289:
  3029  0069E4  6A0D               	clrf	___awdiv@quotient,c
  3030  0069E6  6A0E               	clrf	___awdiv@quotient+1,c
  3031  0069E8  5009               	movf	___awdiv@divisor,w,c
  3032  0069EA  100A               	iorwf	___awdiv@divisor+1,w,c
  3033  0069EC  E01B               	bz	l2311
  3034  0069EE  0E01               	movlw	1
  3035  0069F0  6E0B               	movwf	___awdiv@counter,c
  3036  0069F2  D004               	goto	l2297
  3037  0069F4                     l2295:
  3038  0069F4  90D8               	bcf	status,0,c
  3039  0069F6  3609               	rlcf	___awdiv@divisor,f,c
  3040  0069F8  360A               	rlcf	___awdiv@divisor+1,f,c
  3041  0069FA  2A0B               	incf	___awdiv@counter,f,c
  3042  0069FC                     l2297:
  3043  0069FC  AE0A               	btfss	___awdiv@divisor+1,7,c
  3044  0069FE  D7FA               	goto	l2295
  3045  006A00                     l2299:
  3046  006A00  90D8               	bcf	status,0,c
  3047  006A02  360D               	rlcf	___awdiv@quotient,f,c
  3048  006A04  360E               	rlcf	___awdiv@quotient+1,f,c
  3049  006A06  5009               	movf	___awdiv@divisor,w,c
  3050  006A08  5C07               	subwf	___awdiv@dividend,w,c
  3051  006A0A  500A               	movf	___awdiv@divisor+1,w,c
  3052  006A0C  5808               	subwfb	___awdiv@dividend+1,w,c
  3053  006A0E  E305               	bnc	l2307
  3054  006A10  5009               	movf	___awdiv@divisor,w,c
  3055  006A12  5E07               	subwf	___awdiv@dividend,f,c
  3056  006A14  500A               	movf	___awdiv@divisor+1,w,c
  3057  006A16  5A08               	subwfb	___awdiv@dividend+1,f,c
  3058  006A18  800D               	bsf	___awdiv@quotient,0,c
  3059  006A1A                     l2307:
  3060  006A1A  90D8               	bcf	status,0,c
  3061  006A1C  320A               	rrcf	___awdiv@divisor+1,f,c
  3062  006A1E  3209               	rrcf	___awdiv@divisor,f,c
  3063  006A20  2E0B               	decfsz	___awdiv@counter,f,c
  3064  006A22  D7EE               	goto	l2299
  3065  006A24                     l2311:
  3066  006A24  500C               	movf	___awdiv@sign,w,c
  3067  006A26  E004               	bz	l2315
  3068  006A28  6C0D               	negf	___awdiv@quotient,c
  3069  006A2A  1E0E               	comf	___awdiv@quotient+1,f,c
  3070  006A2C  B0D8               	btfsc	status,0,c
  3071  006A2E  2A0E               	incf	___awdiv@quotient+1,f,c
  3072  006A30                     l2315:
  3073  006A30  C00D  F007         	movff	___awdiv@quotient,?___awdiv
  3074  006A34  C00E  F008         	movff	___awdiv@quotient+1,?___awdiv+1
  3075  006A38  0012               	return		;funcret
  3076  006A3A                     __end_of___awdiv:
  3077                           	opt stack 0
  3078                           tblptru	equ	0xFF8
  3079                           tblptrh	equ	0xFF7
  3080                           tblptrl	equ	0xFF6
  3081                           tablat	equ	0xFF5
  3082                           prodh	equ	0xFF4
  3083                           prodl	equ	0xFF3
  3084                           indf0	equ	0xFEF
  3085                           fsr0h	equ	0xFEA
  3086                           fsr0l	equ	0xFE9
  3087                           wreg	equ	0xFE8
  3088                           indf2	equ	0xFDF
  3089                           postinc2	equ	0xFDE
  3090                           postdec2	equ	0xFDD
  3091                           fsr2h	equ	0xFDA
  3092                           fsr2l	equ	0xFD9
  3093                           status	equ	0xFD8
  3094                           
  3095 ;; *************** function _isdigit *****************
  3096 ;; Defined at:
  3097 ;;		line 8 in file "C:\Program Files (x86)\Microchip\xc8\v1.34\sources\common\isdigit.c"
  3098 ;; Parameters:    Size  Location     Type
  3099 ;;  c               1    wreg     unsigned char 
  3100 ;; Auto vars:     Size  Location     Type
  3101 ;;  c               1    2[COMRAM] unsigned char 
  3102 ;; Return value:  Size  Location     Type
  3103 ;;		None               void
  3104 ;; Registers used:
  3105 ;;		wreg, status,2, status,0
  3106 ;; Tracked objects:
  3107 ;;		On entry : 0/0
  3108 ;;		On exit  : 0/0
  3109 ;;		Unchanged: 0/0
  3110 ;; Data sizes:     COMRAM   BANK0   BANK1   BANK2   BANK3   BANK4   BANK5
  3111 ;;      Params:         0       0       0       0       0       0       0
  3112 ;;      Locals:         2       0       0       0       0       0       0
  3113 ;;      Temps:          1       0       0       0       0       0       0
  3114 ;;      Totals:         3       0       0       0       0       0       0
  3115 ;;Total ram usage:        3 bytes
  3116 ;; Hardware stack levels used:    1
  3117 ;; This function calls:
  3118 ;;		Nothing
  3119 ;; This function is called by:
  3120 ;;		_sprintf
  3121 ;; This function uses a non-reentrant model
  3122 ;;
  3123                           
  3124                           	psect	text5
  3125  00654A                     __ptext5:
  3126                           	opt stack 0
  3127  00654A                     _isdigit:
  3128                           	opt stack 29
  3129                           
  3130                           ;incstack = 0
  3131                           ;isdigit@c stored from wreg
  3132  00654A  6E03               	movwf	isdigit@c,c
  3133  00654C  6A02               	clrf	_isdigit$1182,c
  3134  00654E  0E3A               	movlw	58
  3135  006550  6003               	cpfslt	isdigit@c,c
  3136  006552  D005               	goto	l2521
  3137  006554  0E2F               	movlw	47
  3138  006556  6403               	cpfsgt	isdigit@c,c
  3139  006558  D002               	goto	l2521
  3140  00655A  0E01               	movlw	1
  3141  00655C  6E02               	movwf	_isdigit$1182,c
  3142  00655E                     l2521:
  3143  00655E  C002  F001         	movff	_isdigit$1182,??_isdigit
  3144  006562  3001               	rrcf	??_isdigit,w,c
  3145  006564  0012               	return		;funcret
  3146  006566                     __end_of_isdigit:
  3147                           	opt stack 0
  3148                           tblptru	equ	0xFF8
  3149                           tblptrh	equ	0xFF7
  3150                           tblptrl	equ	0xFF6
  3151                           tablat	equ	0xFF5
  3152                           prodh	equ	0xFF4
  3153                           prodl	equ	0xFF3
  3154                           indf0	equ	0xFEF
  3155                           fsr0h	equ	0xFEA
  3156                           fsr0l	equ	0xFE9
  3157                           wreg	equ	0xFE8
  3158                           indf2	equ	0xFDF
  3159                           postinc2	equ	0xFDE
  3160                           postdec2	equ	0xFDD
  3161                           fsr2h	equ	0xFDA
  3162                           fsr2l	equ	0xFD9
  3163                           status	equ	0xFD8
  3164                           
  3165 ;; *************** function _fround *****************
  3166 ;; Defined at:
  3167 ;;		line 409 in file "C:\Program Files (x86)\Microchip\xc8\v1.34\sources\common\doprnt.c"
  3168 ;; Parameters:    Size  Location     Type
  3169 ;;  prec            1    wreg     unsigned char 
  3170 ;; Auto vars:     Size  Location     Type
  3171 ;;  prec            1   45[COMRAM] unsigned char 
  3172 ;; Return value:  Size  Location     Type
  3173 ;;                  4   29[COMRAM] unsigned char 
  3174 ;; Registers used:
  3175 ;;		wreg, status,2, status,0, tblptrl, tblptrh, tblptru, prodl, prodh, cstack
  3176 ;; Tracked objects:
  3177 ;;		On entry : 0/0
  3178 ;;		On exit  : 0/0
  3179 ;;		Unchanged: 0/0
  3180 ;; Data sizes:     COMRAM   BANK0   BANK1   BANK2   BANK3   BANK4   BANK5
  3181 ;;      Params:         4       0       0       0       0       0       0
  3182 ;;      Locals:         9       0       0       0       0       0       0
  3183 ;;      Temps:          4       0       0       0       0       0       0
  3184 ;;      Totals:        17       0       0       0       0       0       0
  3185 ;;Total ram usage:       17 bytes
  3186 ;; Hardware stack levels used:    1
  3187 ;; Hardware stack levels required when called:    2
  3188 ;; This function calls:
  3189 ;;		___flmul
  3190 ;;		___lbdiv
  3191 ;;		___lbmod
  3192 ;; This function is called by:
  3193 ;;		_sprintf
  3194 ;; This function uses a non-reentrant model
  3195 ;;
  3196                           
  3197                           	psect	text6
  3198  0072AC                     __ptext6:
  3199                           	opt stack 0
  3200  0072AC                     _fround:
  3201                           	opt stack 27
  3202                           
  3203                           ;incstack = 0
  3204                           ;fround@prec stored from wreg
  3205  0072AC  6E2E               	movwf	fround@prec,c
  3206                           
  3207                           ;doprnt.c: 413: if(prec>=110)
  3208  0072AE  0E6D               	movlw	109
  3209  0072B0  642E               	cpfsgt	fround@prec,c
  3210  0072B2  D059               	goto	l2463
  3211                           
  3212                           ;doprnt.c: 414: return 0.5 * _npowers_[prec/100+18] * _npowers_[(prec%100)/10+9] * _npow
      +                          ers_[prec%10];
  3213  0072B4  0E0A               	movlw	10
  3214  0072B6  6E05               	movwf	___lbdiv@divisor,c
  3215  0072B8  0E64               	movlw	100
  3216  0072BA  6E01               	movwf	___lbmod@divisor,c
  3217  0072BC  502E               	movf	fround@prec,w,c
  3218  0072BE  ECE9  F032         	call	___lbmod
  3219  0072C2  EC52  F033         	call	___lbdiv
  3220  0072C6  6E22               	movwf	??_fround& (0+255),c
  3221  0072C8  6A23               	clrf	(??_fround+1)& (0+255),c
  3222  0072CA  90D8               	bcf	status,0,c
  3223  0072CC  3622               	rlcf	??_fround,f,c
  3224  0072CE  3623               	rlcf	??_fround+1,f,c
  3225  0072D0  90D8               	bcf	status,0,c
  3226  0072D2  3622               	rlcf	??_fround,f,c
  3227  0072D4  3623               	rlcf	??_fround+1,f,c
  3228  0072D6  0E24               	movlw	36
  3229  0072D8  2622               	addwf	??_fround,f,c
  3230  0072DA  0E00               	movlw	0
  3231  0072DC  2223               	addwfc	??_fround+1,f,c
  3232  0072DE  0EEF               	movlw	low __npowers_
  3233  0072E0  2422               	addwf	??_fround,w,c
  3234  0072E2  6EF6               	movwf	tblptrl,c
  3235  0072E4  0E7E               	movlw	high __npowers_
  3236  0072E6  2023               	addwfc	??_fround+1,w,c
  3237  0072E8  ECF9  F03A         	call	PL2	;call to abstracted procedure
  3238  0072EC  0E64               	movlw	100
  3239  0072EE  6E05               	movwf	___lbdiv@divisor,c
  3240  0072F0  502E               	movf	fround@prec,w,c
  3241  0072F2  EC52  F033         	call	___lbdiv
  3242  0072F6  D894               	call	PL44	;call to abstracted procedure
  3243  0072F8  0E48               	movlw	72
  3244  0072FA  D882               	call	PL22	;call to abstracted procedure
  3245  0072FC  EC07  F03B         	call	PL4	;call to abstracted procedure
  3246  007300  ECBE  F035         	call	___flmul	;wreg free
  3247  007304  C00F  F02A         	movff	?___flmul,_fround$1440
  3248  007308  C010  F02B         	movff	?___flmul+1,_fround$1440+1
  3249  00730C  C011  F02C         	movff	?___flmul+2,_fround$1440+2
  3250  007310  C012  F02D         	movff	?___flmul+3,_fround$1440+3
  3251                           
  3252                           ;doprnt.c: 414: return 0.5 * _npowers_[prec/100+18] * _npowers_[(prec%100)/10+9] * _npow
      +                          ers_[prec%10];
  3253  007314  0E0A               	movlw	10
  3254  007316  6E01               	movwf	___lbmod@divisor,c
  3255  007318  502E               	movf	fround@prec,w,c
  3256  00731A  ECE9  F032         	call	___lbmod
  3257  00731E  6E22               	movwf	??_fround& (0+255),c
  3258  007320  6A23               	clrf	(??_fround+1)& (0+255),c
  3259  007322  90D8               	bcf	status,0,c
  3260  007324  D862               	call	PL14	;call to abstracted procedure
  3261  007326  ECF9  F03A         	call	PL2	;call to abstracted procedure
  3262  00732A  C02A  F00F         	movff	_fround$1440,___flmul@f1
  3263  00732E  C02B  F010         	movff	_fround$1440+1,___flmul@f1+1
  3264  007332  C02C  F011         	movff	_fround$1440+2,___flmul@f1+2
  3265  007336  C02D  F012         	movff	_fround$1440+3,___flmul@f1+3
  3266  00733A  ECBE  F035         	call	___flmul	;wreg free
  3267  00733E  C00F  F026         	movff	?___flmul,_fround$1441
  3268  007342  C010  F027         	movff	?___flmul+1,_fround$1441+1
  3269  007346  C011  F028         	movff	?___flmul+2,_fround$1441+2
  3270  00734A  C012  F029         	movff	?___flmul+3,_fround$1441+3
  3271                           
  3272                           ;doprnt.c: 414: return 0.5 * _npowers_[prec/100+18] * _npowers_[(prec%100)/10+9] * _npow
      +                          ers_[prec%10];
  3273  00734E  C026  F00F         	movff	_fround$1441,___flmul@f1
  3274  007352  C027  F010         	movff	_fround$1441+1,___flmul@f1+1
  3275  007356  C028  F011         	movff	_fround$1441+2,___flmul@f1+2
  3276  00735A  C029  F012         	movff	_fround$1441+3,___flmul@f1+3
  3277  00735E  D859               	call	PL38	;call to abstracted procedure
  3278  007360  ECBE  F035         	call	___flmul	;wreg free
  3279  007364  D039               	goto	L7
  3280  007366                     l2463:
  3281                           
  3282                           ;doprnt.c: 415: else if(prec > 10)
  3283  007366  0E0A               	movlw	10
  3284  007368  642E               	cpfsgt	fround@prec,c
  3285  00736A  D02A               	goto	l2471
  3286                           
  3287                           ;doprnt.c: 416: return 0.5 * _npowers_[prec/10+9] * _npowers_[prec%10];
  3288  00736C  6E01               	movwf	___lbmod@divisor,c
  3289  00736E  502E               	movf	fround@prec,w,c
  3290  007370  ECE9  F032         	call	___lbmod
  3291  007374  6E22               	movwf	??_fround& (0+255),c
  3292  007376  6A23               	clrf	(??_fround+1)& (0+255),c
  3293  007378  90D8               	bcf	status,0,c
  3294  00737A  D837               	call	PL14	;call to abstracted procedure
  3295  00737C  ECF9  F03A         	call	PL2	;call to abstracted procedure
  3296  007380  0E0A               	movlw	10
  3297  007382  6E05               	movwf	___lbdiv@divisor,c
  3298  007384  502E               	movf	fround@prec,w,c
  3299  007386  EC52  F033         	call	___lbdiv
  3300  00738A  D84A               	call	PL44	;call to abstracted procedure
  3301  00738C  0E24               	movlw	36
  3302  00738E  D838               	call	PL22	;call to abstracted procedure
  3303  007390  EC07  F03B         	call	PL4	;call to abstracted procedure
  3304  007394  ECBE  F035         	call	___flmul	;wreg free
  3305  007398  C00F  F02A         	movff	?___flmul,_fround$1440
  3306  00739C  C010  F02B         	movff	?___flmul+1,_fround$1440+1
  3307  0073A0  C011  F02C         	movff	?___flmul+2,_fround$1440+2
  3308  0073A4  C012  F02D         	movff	?___flmul+3,_fround$1440+3
  3309                           
  3310                           ;doprnt.c: 416: return 0.5 * _npowers_[prec/10+9] * _npowers_[prec%10];
  3311  0073A8  C02A  F00F         	movff	_fround$1440,___flmul@f1
  3312  0073AC  C02B  F010         	movff	_fround$1440+1,___flmul@f1+1
  3313  0073B0  C02C  F011         	movff	_fround$1440+2,___flmul@f1+2
  3314  0073B4  C02D  F012         	movff	_fround$1440+3,___flmul@f1+3
  3315  0073B8  D82C               	call	PL38	;call to abstracted procedure
  3316  0073BA  ECBE  F035         	call	___flmul	;wreg free
  3317  0073BE  D00C               	goto	L7
  3318  0073C0                     l2471:
  3319                           
  3320                           ;doprnt.c: 417: return 0.5 * _npowers_[prec];
  3321  0073C0  502E               	movf	fround@prec,w,c
  3322  0073C2  0D04               	mullw	4
  3323  0073C4  0EEF               	movlw	low __npowers_
  3324  0073C6  24F3               	addwf	prodl,w,c
  3325  0073C8  6EF6               	movwf	tblptrl,c
  3326  0073CA  0E7E               	movlw	high __npowers_
  3327  0073CC  20F4               	addwfc	prodh,w,c
  3328  0073CE  EC07  F03B         	call	PL4	;call to abstracted procedure
  3329  0073D2  D81F               	call	PL38	;call to abstracted procedure
  3330  0073D4  ECBE  F035         	call	___flmul	;wreg free
  3331  0073D8                     L7:
  3332  0073D8  C00F  F01E         	movff	?___flmul,?_fround
  3333  0073DC  C010  F01F         	movff	?___flmul+1,?_fround+1
  3334  0073E0  C011  F020         	movff	?___flmul+2,?_fround+2
  3335  0073E4  C012  F021         	movff	?___flmul+3,?_fround+3
  3336  0073E8  0012               	return		;funcret
  3337  0073EA                     __end_of_fround:
  3338                           	opt stack 0
  3339  0073EA                     PL14:
  3340                           	opt stack 27
  3341  0073EA  3622               	rlcf	??_fround,f,c
  3342  0073EC  3623               	rlcf	??_fround+1,f,c
  3343  0073EE  90D8               	bcf	status,0,c
  3344  0073F0  3622               	rlcf	??_fround,f,c
  3345  0073F2  3623               	rlcf	??_fround+1,f,c
  3346  0073F4  0EEF               	movlw	low __npowers_
  3347  0073F6  2422               	addwf	??_fround,w,c
  3348  0073F8  6EF6               	movwf	tblptrl,c
  3349  0073FA  0E7E               	movlw	high __npowers_
  3350  0073FC  2023               	addwfc	??_fround+1,w,c
  3351  0073FE  0012               	return	
  3352  007400                     __end_ofPL14:
  3353                           	opt stack 0
  3354  007400                     PL22:
  3355                           	opt stack 27
  3356  007400  2624               	addwf	??_fround+2,f,c
  3357  007402  0E00               	movlw	0
  3358  007404  2225               	addwfc	??_fround+3,f,c
  3359  007406  0EEF               	movlw	low __npowers_
  3360  007408  2424               	addwf	??_fround+2,w,c
  3361  00740A  6EF6               	movwf	tblptrl,c
  3362  00740C  0E7E               	movlw	high __npowers_
  3363  00740E  2025               	addwfc	??_fround+3,w,c
  3364  007410  0012               	return	
  3365  007412                     __end_ofPL22:
  3366                           	opt stack 0
  3367  007412                     PL38:
  3368                           	opt stack 27
  3369  007412  0E00               	movlw	0
  3370  007414  6E13               	movwf	___flmul@f2,c
  3371  007416  6E14               	movwf	___flmul@f2+1,c
  3372  007418  6E15               	movwf	___flmul@f2+2,c
  3373  00741A  0E3F               	movlw	63
  3374  00741C  6E16               	movwf	___flmul@f2+3,c
  3375  00741E  0C3F               	retlw	63
  3376  007420                     __end_ofPL38:
  3377                           	opt stack 0
  3378  007420                     PL44:
  3379                           	opt stack 27
  3380  007420  6E24               	movwf	(??_fround+2)& (0+255),c
  3381  007422  6A25               	clrf	(??_fround+3)& (0+255),c
  3382  007424  90D8               	bcf	status,0,c
  3383  007426  3624               	rlcf	??_fround+2,f,c
  3384  007428  3625               	rlcf	??_fround+3,f,c
  3385  00742A  90D8               	bcf	status,0,c
  3386  00742C  3624               	rlcf	??_fround+2,f,c
  3387  00742E  3625               	rlcf	??_fround+3,f,c
  3388  007430  0012               	return	
  3389  007432                     __end_ofPL44:
  3390                           	opt stack 0
  3391                           tblptru	equ	0xFF8
  3392                           tblptrh	equ	0xFF7
  3393                           tblptrl	equ	0xFF6
  3394                           tablat	equ	0xFF5
  3395                           prodh	equ	0xFF4
  3396                           prodl	equ	0xFF3
  3397                           indf0	equ	0xFEF
  3398                           fsr0h	equ	0xFEA
  3399                           fsr0l	equ	0xFE9
  3400                           wreg	equ	0xFE8
  3401                           indf2	equ	0xFDF
  3402                           postinc2	equ	0xFDE
  3403                           postdec2	equ	0xFDD
  3404                           fsr2h	equ	0xFDA
  3405                           fsr2l	equ	0xFD9
  3406                           status	equ	0xFD8
  3407                           
  3408 ;; *************** function ___lbmod *****************
  3409 ;; Defined at:
  3410 ;;		line 4 in file "C:\Program Files (x86)\Microchip\xc8\v1.34\sources\common\lbmod.c"
  3411 ;; Parameters:    Size  Location     Type
  3412 ;;  dividend        1    wreg     unsigned char 
  3413 ;;  divisor         1    0[COMRAM] unsigned char 
  3414 ;; Auto vars:     Size  Location     Type
  3415 ;;  dividend        1    1[COMRAM] unsigned char 
  3416 ;;  rem             1    3[COMRAM] unsigned char 
  3417 ;;  counter         1    2[COMRAM] unsigned char 
  3418 ;; Return value:  Size  Location     Type
  3419 ;;                  1    wreg      unsigned char 
  3420 ;; Registers used:
  3421 ;;		wreg, status,2, status,0
  3422 ;; Tracked objects:
  3423 ;;		On entry : 0/0
  3424 ;;		On exit  : 0/0
  3425 ;;		Unchanged: 0/0
  3426 ;; Data sizes:     COMRAM   BANK0   BANK1   BANK2   BANK3   BANK4   BANK5
  3427 ;;      Params:         1       0       0       0       0       0       0
  3428 ;;      Locals:         3       0       0       0       0       0       0
  3429 ;;      Temps:          0       0       0       0       0       0       0
  3430 ;;      Totals:         4       0       0       0       0       0       0
  3431 ;;Total ram usage:        4 bytes
  3432 ;; Hardware stack levels used:    1
  3433 ;; This function calls:
  3434 ;;		Nothing
  3435 ;; This function is called by:
  3436 ;;		_fround
  3437 ;; This function uses a non-reentrant model
  3438 ;;
  3439                           
  3440                           	psect	text7
  3441  0065D2                     __ptext7:
  3442                           	opt stack 0
  3443  0065D2                     ___lbmod:
  3444                           	opt stack 28
  3445                           
  3446                           ;incstack = 0
  3447                           ;___lbmod@dividend stored from wreg
  3448  0065D2  6E02               	movwf	___lbmod@dividend,c
  3449  0065D4  0E08               	movlw	8
  3450  0065D6  6E03               	movwf	___lbmod@counter,c
  3451  0065D8  6A04               	clrf	___lbmod@rem,c
  3452  0065DA                     l2385:
  3453  0065DA  90D8               	bcf	status,0,c
  3454  0065DC  3402               	rlcf	___lbmod@dividend,w,c
  3455  0065DE  3404               	rlcf	___lbmod@rem,w,c
  3456  0065E0  6E04               	movwf	___lbmod@rem,c
  3457  0065E2  90D8               	bcf	status,0,c
  3458  0065E4  3602               	rlcf	___lbmod@dividend,f,c
  3459  0065E6  5001               	movf	___lbmod@divisor,w,c
  3460  0065E8  5C04               	subwf	___lbmod@rem,w,c
  3461  0065EA  E302               	bnc	l2393
  3462  0065EC  5001               	movf	___lbmod@divisor,w,c
  3463  0065EE  5E04               	subwf	___lbmod@rem,f,c
  3464  0065F0                     l2393:
  3465  0065F0  2E03               	decfsz	___lbmod@counter,f,c
  3466  0065F2  D7F3               	goto	l2385
  3467  0065F4  5004               	movf	___lbmod@rem,w,c
  3468  0065F6  0012               	return		;funcret
  3469  0065F8                     __end_of___lbmod:
  3470                           	opt stack 0
  3471                           tblptru	equ	0xFF8
  3472                           tblptrh	equ	0xFF7
  3473                           tblptrl	equ	0xFF6
  3474                           tablat	equ	0xFF5
  3475                           prodh	equ	0xFF4
  3476                           prodl	equ	0xFF3
  3477                           indf0	equ	0xFEF
  3478                           fsr0h	equ	0xFEA
  3479                           fsr0l	equ	0xFE9
  3480                           wreg	equ	0xFE8
  3481                           indf2	equ	0xFDF
  3482                           postinc2	equ	0xFDE
  3483                           postdec2	equ	0xFDD
  3484                           fsr2h	equ	0xFDA
  3485                           fsr2l	equ	0xFD9
  3486                           status	equ	0xFD8
  3487                           
  3488 ;; *************** function ___lbdiv *****************
  3489 ;; Defined at:
  3490 ;;		line 4 in file "C:\Program Files (x86)\Microchip\xc8\v1.34\sources\common\lbdiv.c"
  3491 ;; Parameters:    Size  Location     Type
  3492 ;;  dividend        1    wreg     unsigned char 
  3493 ;;  divisor         1    4[COMRAM] unsigned char 
  3494 ;; Auto vars:     Size  Location     Type
  3495 ;;  dividend        1    5[COMRAM] unsigned char 
  3496 ;;  quotient        1    7[COMRAM] unsigned char 
  3497 ;;  counter         1    6[COMRAM] unsigned char 
  3498 ;; Return value:  Size  Location     Type
  3499 ;;                  1    wreg      unsigned char 
  3500 ;; Registers used:
  3501 ;;		wreg, status,2, status,0
  3502 ;; Tracked objects:
  3503 ;;		On entry : 0/0
  3504 ;;		On exit  : 0/0
  3505 ;;		Unchanged: 0/0
  3506 ;; Data sizes:     COMRAM   BANK0   BANK1   BANK2   BANK3   BANK4   BANK5
  3507 ;;      Params:         1       0       0       0       0       0       0
  3508 ;;      Locals:         3       0       0       0       0       0       0
  3509 ;;      Temps:          0       0       0       0       0       0       0
  3510 ;;      Totals:         4       0       0       0       0       0       0
  3511 ;;Total ram usage:        4 bytes
  3512 ;; Hardware stack levels used:    1
  3513 ;; This function calls:
  3514 ;;		Nothing
  3515 ;; This function is called by:
  3516 ;;		_fround
  3517 ;; This function uses a non-reentrant model
  3518 ;;
  3519                           
  3520                           	psect	text8
  3521  0066A4                     __ptext8:
  3522                           	opt stack 0
  3523  0066A4                     ___lbdiv:
  3524                           	opt stack 28
  3525                           
  3526                           ;incstack = 0
  3527                           ;___lbdiv@dividend stored from wreg
  3528  0066A4  6E06               	movwf	___lbdiv@dividend,c
  3529  0066A6  6A08               	clrf	___lbdiv@quotient,c
  3530  0066A8  5005               	movf	___lbdiv@divisor,w,c
  3531  0066AA  E014               	bz	l2377
  3532  0066AC  0E01               	movlw	1
  3533  0066AE  6E07               	movwf	___lbdiv@counter,c
  3534  0066B0  D003               	goto	l2365
  3535  0066B2                     l2361:
  3536  0066B2  90D8               	bcf	status,0,c
  3537  0066B4  3605               	rlcf	___lbdiv@divisor,f,c
  3538  0066B6  2A07               	incf	___lbdiv@counter,f,c
  3539  0066B8                     l2365:
  3540  0066B8  AE05               	btfss	___lbdiv@divisor,7,c
  3541  0066BA  D7FB               	goto	l2361
  3542  0066BC                     l2367:
  3543  0066BC  90D8               	bcf	status,0,c
  3544  0066BE  3608               	rlcf	___lbdiv@quotient,f,c
  3545  0066C0  5005               	movf	___lbdiv@divisor,w,c
  3546  0066C2  5C06               	subwf	___lbdiv@dividend,w,c
  3547  0066C4  E303               	bnc	l2373
  3548  0066C6  5005               	movf	___lbdiv@divisor,w,c
  3549  0066C8  5E06               	subwf	___lbdiv@dividend,f,c
  3550  0066CA  8008               	bsf	___lbdiv@quotient,0,c
  3551  0066CC                     l2373:
  3552  0066CC  90D8               	bcf	status,0,c
  3553  0066CE  3205               	rrcf	___lbdiv@divisor,f,c
  3554  0066D0  2E07               	decfsz	___lbdiv@counter,f,c
  3555  0066D2  D7F4               	goto	l2367
  3556  0066D4                     l2377:
  3557  0066D4  5008               	movf	___lbdiv@quotient,w,c
  3558  0066D6  0012               	return		;funcret
  3559  0066D8                     __end_of___lbdiv:
  3560                           	opt stack 0
  3561                           tblptru	equ	0xFF8
  3562                           tblptrh	equ	0xFF7
  3563                           tblptrl	equ	0xFF6
  3564                           tablat	equ	0xFF5
  3565                           prodh	equ	0xFF4
  3566                           prodl	equ	0xFF3
  3567                           indf0	equ	0xFEF
  3568                           fsr0h	equ	0xFEA
  3569                           fsr0l	equ	0xFE9
  3570                           wreg	equ	0xFE8
  3571                           indf2	equ	0xFDF
  3572                           postinc2	equ	0xFDE
  3573                           postdec2	equ	0xFDD
  3574                           fsr2h	equ	0xFDA
  3575                           fsr2l	equ	0xFD9
  3576                           status	equ	0xFD8
  3577                           
  3578 ;; *************** function __tdiv_to_l_ *****************
  3579 ;; Defined at:
  3580 ;;		line 60 in file "C:\Program Files (x86)\Microchip\xc8\v1.34\sources\common\ftdivl.c"
  3581 ;; Parameters:    Size  Location     Type
  3582 ;;  f1              4    0[COMRAM] float 
  3583 ;;  f2              4    4[COMRAM] float 
  3584 ;; Auto vars:     Size  Location     Type
  3585 ;;  quot            4   11[COMRAM] unsigned long 
  3586 ;;  exp1            1   16[COMRAM] unsigned char 
  3587 ;;  cntr            1   15[COMRAM] unsigned char 
  3588 ;; Return value:  Size  Location     Type
  3589 ;;                  4    0[COMRAM] unsigned long 
  3590 ;; Registers used:
  3591 ;;		wreg, status,2, status,0
  3592 ;; Tracked objects:
  3593 ;;		On entry : 0/0
  3594 ;;		On exit  : 0/0
  3595 ;;		Unchanged: 0/0
  3596 ;; Data sizes:     COMRAM   BANK0   BANK1   BANK2   BANK3   BANK4   BANK5
  3597 ;;      Params:         8       0       0       0       0       0       0
  3598 ;;      Locals:         6       0       0       0       0       0       0
  3599 ;;      Temps:          3       0       0       0       0       0       0
  3600 ;;      Totals:        17       0       0       0       0       0       0
  3601 ;;Total ram usage:       17 bytes
  3602 ;; Hardware stack levels used:    1
  3603 ;; This function calls:
  3604 ;;		Nothing
  3605 ;; This function is called by:
  3606 ;;		_sprintf
  3607 ;; This function uses a non-reentrant model
  3608 ;;
  3609                           
  3610                           	psect	text9
  3611  006DB6                     __ptext9:
  3612                           	opt stack 0
  3613  006DB6                     __tdiv_to_l_:
  3614                           	opt stack 29
  3615                           
  3616                           ;incstack = 0
  3617  006DB6  C003  F009         	movff	__tdiv_to_l_@f1+2,??__tdiv_to_l_
  3618  006DBA  6A0A               	clrf	(??__tdiv_to_l_+1)& (0+255),c
  3619  006DBC  6A0B               	clrf	(??__tdiv_to_l_+2)& (0+255),c
  3620  006DBE  3402               	rlcf	__tdiv_to_l_@f1+1,w,c
  3621  006DC0  3609               	rlcf	??__tdiv_to_l_& (0+255),f,c
  3622  006DC2  E301               	bnc	u2401
  3623  006DC4  800A               	bsf	(??__tdiv_to_l_+1)& (0+255),0,c
  3624  006DC6                     u2401:
  3625  006DC6  5009               	movf	??__tdiv_to_l_,w,c
  3626  006DC8  6E11               	movwf	__tdiv_to_l_@exp1,c
  3627  006DCA  5011               	movf	__tdiv_to_l_@exp1,w,c
  3628  006DCC  E105               	bnz	l2529
  3629  006DCE                     l2527:
  3630  006DCE  6A01               	clrf	?__tdiv_to_l_,c
  3631  006DD0  6A02               	clrf	?__tdiv_to_l_+1,c
  3632  006DD2  6A03               	clrf	?__tdiv_to_l_+2,c
  3633  006DD4  6A04               	clrf	?__tdiv_to_l_+3,c
  3634  006DD6  D056               	goto	l810
  3635  006DD8                     l2529:
  3636  006DD8  C007  F009         	movff	__tdiv_to_l_@f2+2,??__tdiv_to_l_
  3637  006DDC  6A0A               	clrf	(??__tdiv_to_l_+1)& (0+255),c
  3638  006DDE  6A0B               	clrf	(??__tdiv_to_l_+2)& (0+255),c
  3639  006DE0  3406               	rlcf	__tdiv_to_l_@f2+1,w,c
  3640  006DE2  3609               	rlcf	??__tdiv_to_l_& (0+255),f,c
  3641  006DE4  E301               	bnc	u2421
  3642  006DE6  800A               	bsf	(??__tdiv_to_l_+1)& (0+255),0,c
  3643  006DE8                     u2421:
  3644  006DE8  5009               	movf	??__tdiv_to_l_,w,c
  3645  006DEA  6E10               	movwf	__tdiv_to_l_@cntr,c
  3646  006DEC  5010               	movf	__tdiv_to_l_@cntr,w,c
  3647  006DEE  E0EF               	bz	l2527
  3648  006DF0  8E02               	bsf	__tdiv_to_l_@f1+1,7,c
  3649  006DF2  6A03               	clrf	__tdiv_to_l_@f1+2,c
  3650  006DF4  8E06               	bsf	__tdiv_to_l_@f2+1,7,c
  3651  006DF6  6A07               	clrf	__tdiv_to_l_@f2+2,c
  3652  006DF8  6A0C               	clrf	__tdiv_to_l_@quot,c
  3653  006DFA  6A0D               	clrf	__tdiv_to_l_@quot+1,c
  3654  006DFC  6A0E               	clrf	__tdiv_to_l_@quot+2,c
  3655  006DFE  6A0F               	clrf	__tdiv_to_l_@quot+3,c
  3656  006E00  0E7F               	movlw	127
  3657  006E02  5E11               	subwf	__tdiv_to_l_@exp1,f,c
  3658  006E04  5010               	movf	__tdiv_to_l_@cntr,w,c
  3659  006E06  0F98               	addlw	152
  3660  006E08  5E11               	subwf	__tdiv_to_l_@exp1,f,c
  3661  006E0A  0E18               	movlw	24
  3662  006E0C  6E10               	movwf	__tdiv_to_l_@cntr,c
  3663  006E0E                     l2547:
  3664  006E0E  90D8               	bcf	status,0,c
  3665  006E10  360C               	rlcf	__tdiv_to_l_@quot,f,c
  3666  006E12  360D               	rlcf	__tdiv_to_l_@quot+1,f,c
  3667  006E14  360E               	rlcf	__tdiv_to_l_@quot+2,f,c
  3668  006E16  360F               	rlcf	__tdiv_to_l_@quot+3,f,c
  3669  006E18  5005               	movf	__tdiv_to_l_@f2,w,c
  3670  006E1A  5C01               	subwf	__tdiv_to_l_@f1,w,c
  3671  006E1C  5006               	movf	__tdiv_to_l_@f2+1,w,c
  3672  006E1E  5802               	subwfb	__tdiv_to_l_@f1+1,w,c
  3673  006E20  5007               	movf	__tdiv_to_l_@f2+2,w,c
  3674  006E22  5803               	subwfb	__tdiv_to_l_@f1+2,w,c
  3675  006E24  E307               	bnc	l813
  3676  006E26  5005               	movf	__tdiv_to_l_@f2,w,c
  3677  006E28  5E01               	subwf	__tdiv_to_l_@f1,f,c
  3678  006E2A  5006               	movf	__tdiv_to_l_@f2+1,w,c
  3679  006E2C  5A02               	subwfb	__tdiv_to_l_@f1+1,f,c
  3680  006E2E  5007               	movf	__tdiv_to_l_@f2+2,w,c
  3681  006E30  5A03               	subwfb	__tdiv_to_l_@f1+2,f,c
  3682  006E32  800C               	bsf	__tdiv_to_l_@quot,0,c
  3683  006E34                     l813:
  3684  006E34  90D8               	bcf	status,0,c
  3685  006E36  3601               	rlcf	__tdiv_to_l_@f1,f,c
  3686  006E38  3602               	rlcf	__tdiv_to_l_@f1+1,f,c
  3687  006E3A  3603               	rlcf	__tdiv_to_l_@f1+2,f,c
  3688  006E3C  2E10               	decfsz	__tdiv_to_l_@cntr,f,c
  3689  006E3E  D7E7               	goto	l2547
  3690  006E40  AE11               	btfss	__tdiv_to_l_@exp1,7,c
  3691  006E42  D00C               	goto	l2567
  3692  006E44  5011               	movf	__tdiv_to_l_@exp1,w,c
  3693  006E46  0A80               	xorlw	128
  3694  006E48  0F97               	addlw	151
  3695  006E4A  E3C1               	bnc	l2527
  3696  006E4C                     l2563:
  3697  006E4C  90D8               	bcf	status,0,c
  3698  006E4E  320F               	rrcf	__tdiv_to_l_@quot+3,f,c
  3699  006E50  320E               	rrcf	__tdiv_to_l_@quot+2,f,c
  3700  006E52  320D               	rrcf	__tdiv_to_l_@quot+1,f,c
  3701  006E54  320C               	rrcf	__tdiv_to_l_@quot,f,c
  3702  006E56  3E11               	incfsz	__tdiv_to_l_@exp1,f,c
  3703  006E58  D7F9               	goto	l2563
  3704  006E5A  D00C               	goto	l819
  3705  006E5C                     l2567:
  3706  006E5C  0E17               	movlw	23
  3707  006E5E  6411               	cpfsgt	__tdiv_to_l_@exp1,c
  3708  006E60  D007               	goto	l2573
  3709  006E62  D7B5               	goto	l2527
  3710  006E64                     l2571:
  3711  006E64  90D8               	bcf	status,0,c
  3712  006E66  360C               	rlcf	__tdiv_to_l_@quot,f,c
  3713  006E68  360D               	rlcf	__tdiv_to_l_@quot+1,f,c
  3714  006E6A  360E               	rlcf	__tdiv_to_l_@quot+2,f,c
  3715  006E6C  360F               	rlcf	__tdiv_to_l_@quot+3,f,c
  3716  006E6E  0611               	decf	__tdiv_to_l_@exp1,f,c
  3717  006E70                     l2573:
  3718  006E70  5011               	movf	__tdiv_to_l_@exp1,w,c
  3719  006E72  E1F8               	bnz	l2571
  3720  006E74                     l819:
  3721  006E74  C00C  F001         	movff	__tdiv_to_l_@quot,?__tdiv_to_l_
  3722  006E78  C00D  F002         	movff	__tdiv_to_l_@quot+1,?__tdiv_to_l_+1
  3723  006E7C  C00E  F003         	movff	__tdiv_to_l_@quot+2,?__tdiv_to_l_+2
  3724  006E80  C00F  F004         	movff	__tdiv_to_l_@quot+3,?__tdiv_to_l_+3
  3725  006E84                     l810:
  3726  006E84  0012               	return		;funcret
  3727  006E86                     __end_of__tdiv_to_l_:
  3728                           	opt stack 0
  3729                           tblptru	equ	0xFF8
  3730                           tblptrh	equ	0xFF7
  3731                           tblptrl	equ	0xFF6
  3732                           tablat	equ	0xFF5
  3733                           prodh	equ	0xFF4
  3734                           prodl	equ	0xFF3
  3735                           indf0	equ	0xFEF
  3736                           fsr0h	equ	0xFEA
  3737                           fsr0l	equ	0xFE9
  3738                           wreg	equ	0xFE8
  3739                           indf2	equ	0xFDF
  3740                           postinc2	equ	0xFDE
  3741                           postdec2	equ	0xFDD
  3742                           fsr2h	equ	0xFDA
  3743                           fsr2l	equ	0xFD9
  3744                           status	equ	0xFD8
  3745                           
  3746 ;; *************** function __div_to_l_ *****************
  3747 ;; Defined at:
  3748 ;;		line 60 in file "C:\Program Files (x86)\Microchip\xc8\v1.34\sources\common\fldivl.c"
  3749 ;; Parameters:    Size  Location     Type
  3750 ;;  f1              4    0[COMRAM] unsigned long 
  3751 ;;  f2              4    4[COMRAM] unsigned long 
  3752 ;; Auto vars:     Size  Location     Type
  3753 ;;  quot            4    8[COMRAM] unsigned long 
  3754 ;;  exp1            1   13[COMRAM] unsigned char 
  3755 ;;  cntr            1   12[COMRAM] unsigned char 
  3756 ;; Return value:  Size  Location     Type
  3757 ;;                  4    0[COMRAM] unsigned long 
  3758 ;; Registers used:
  3759 ;;		wreg, status,2, status,0
  3760 ;; Tracked objects:
  3761 ;;		On entry : 0/0
  3762 ;;		On exit  : 0/0
  3763 ;;		Unchanged: 0/0
  3764 ;; Data sizes:     COMRAM   BANK0   BANK1   BANK2   BANK3   BANK4   BANK5
  3765 ;;      Params:         8       0       0       0       0       0       0
  3766 ;;      Locals:         6       0       0       0       0       0       0
  3767 ;;      Temps:          0       0       0       0       0       0       0
  3768 ;;      Totals:        14       0       0       0       0       0       0
  3769 ;;Total ram usage:       14 bytes
  3770 ;; Hardware stack levels used:    1
  3771 ;; This function calls:
  3772 ;;		Nothing
  3773 ;; This function is called by:
  3774 ;;		_sprintf
  3775 ;; This function uses a non-reentrant model
  3776 ;;
  3777                           
  3778                           	psect	text10
  3779  006C36                     __ptext10:
  3780                           	opt stack 0
  3781  006C36                     __div_to_l_:
  3782                           	opt stack 29
  3783                           
  3784                           ;incstack = 0
  3785  006C36  3403               	rlcf	__div_to_l_@f1+2,w,c
  3786  006C38  3404               	rlcf	__div_to_l_@f1+3,w,c
  3787  006C3A  6E0E               	movwf	__div_to_l_@exp1,c
  3788  006C3C  500E               	movf	__div_to_l_@exp1,w,c
  3789  006C3E  E105               	bnz	l2579
  3790  006C40                     l2577:
  3791  006C40  6A01               	clrf	?__div_to_l_,c
  3792  006C42  6A02               	clrf	?__div_to_l_+1,c
  3793  006C44  6A03               	clrf	?__div_to_l_+2,c
  3794  006C46  6A04               	clrf	?__div_to_l_+3,c
  3795  006C48  D054               	goto	l689
  3796  006C4A                     l2579:
  3797  006C4A  3407               	rlcf	__div_to_l_@f2+2,w,c
  3798  006C4C  3408               	rlcf	__div_to_l_@f2+3,w,c
  3799  006C4E  6E0D               	movwf	__div_to_l_@cntr,c
  3800  006C50  500D               	movf	__div_to_l_@cntr,w,c
  3801  006C52  E0F6               	bz	l2577
  3802  006C54  8E03               	bsf	__div_to_l_@f1+2,7,c
  3803  006C56  6A04               	clrf	__div_to_l_@f1+3,c
  3804  006C58  8E07               	bsf	__div_to_l_@f2+2,7,c
  3805  006C5A  6A08               	clrf	__div_to_l_@f2+3,c
  3806  006C5C  6A09               	clrf	__div_to_l_@quot,c
  3807  006C5E  6A0A               	clrf	__div_to_l_@quot+1,c
  3808  006C60  6A0B               	clrf	__div_to_l_@quot+2,c
  3809  006C62  6A0C               	clrf	__div_to_l_@quot+3,c
  3810  006C64  0E7F               	movlw	127
  3811  006C66  5E0E               	subwf	__div_to_l_@exp1,f,c
  3812  006C68  500D               	movf	__div_to_l_@cntr,w,c
  3813  006C6A  0FA0               	addlw	160
  3814  006C6C  5E0E               	subwf	__div_to_l_@exp1,f,c
  3815  006C6E  0E20               	movlw	32
  3816  006C70  6E0D               	movwf	__div_to_l_@cntr,c
  3817  006C72                     l2593:
  3818  006C72  90D8               	bcf	status,0,c
  3819  006C74  3609               	rlcf	__div_to_l_@quot,f,c
  3820  006C76  360A               	rlcf	__div_to_l_@quot+1,f,c
  3821  006C78  360B               	rlcf	__div_to_l_@quot+2,f,c
  3822  006C7A  360C               	rlcf	__div_to_l_@quot+3,f,c
  3823  006C7C  5005               	movf	__div_to_l_@f2,w,c
  3824  006C7E  5C01               	subwf	__div_to_l_@f1,w,c
  3825  006C80  5006               	movf	__div_to_l_@f2+1,w,c
  3826  006C82  5802               	subwfb	__div_to_l_@f1+1,w,c
  3827  006C84  5007               	movf	__div_to_l_@f2+2,w,c
  3828  006C86  5803               	subwfb	__div_to_l_@f1+2,w,c
  3829  006C88  5008               	movf	__div_to_l_@f2+3,w,c
  3830  006C8A  5804               	subwfb	__div_to_l_@f1+3,w,c
  3831  006C8C  E309               	bnc	l2601
  3832  006C8E  5005               	movf	__div_to_l_@f2,w,c
  3833  006C90  5E01               	subwf	__div_to_l_@f1,f,c
  3834  006C92  5006               	movf	__div_to_l_@f2+1,w,c
  3835  006C94  5A02               	subwfb	__div_to_l_@f1+1,f,c
  3836  006C96  5007               	movf	__div_to_l_@f2+2,w,c
  3837  006C98  5A03               	subwfb	__div_to_l_@f1+2,f,c
  3838  006C9A  5008               	movf	__div_to_l_@f2+3,w,c
  3839  006C9C  5A04               	subwfb	__div_to_l_@f1+3,f,c
  3840  006C9E  8009               	bsf	__div_to_l_@quot,0,c
  3841  006CA0                     l2601:
  3842  006CA0  90D8               	bcf	status,0,c
  3843  006CA2  3601               	rlcf	__div_to_l_@f1,f,c
  3844  006CA4  3602               	rlcf	__div_to_l_@f1+1,f,c
  3845  006CA6  3603               	rlcf	__div_to_l_@f1+2,f,c
  3846  006CA8  3604               	rlcf	__div_to_l_@f1+3,f,c
  3847  006CAA  2E0D               	decfsz	__div_to_l_@cntr,f,c
  3848  006CAC  D7E2               	goto	l2593
  3849  006CAE  AE0E               	btfss	__div_to_l_@exp1,7,c
  3850  006CB0  D00C               	goto	l2615
  3851  006CB2  500E               	movf	__div_to_l_@exp1,w,c
  3852  006CB4  0A80               	xorlw	128
  3853  006CB6  0F9F               	addlw	159
  3854  006CB8  E3C3               	bnc	l2577
  3855  006CBA                     l2611:
  3856  006CBA  90D8               	bcf	status,0,c
  3857  006CBC  320C               	rrcf	__div_to_l_@quot+3,f,c
  3858  006CBE  320B               	rrcf	__div_to_l_@quot+2,f,c
  3859  006CC0  320A               	rrcf	__div_to_l_@quot+1,f,c
  3860  006CC2  3209               	rrcf	__div_to_l_@quot,f,c
  3861  006CC4  3E0E               	incfsz	__div_to_l_@exp1,f,c
  3862  006CC6  D7F9               	goto	l2611
  3863  006CC8  D00C               	goto	l698
  3864  006CCA                     l2615:
  3865  006CCA  0E1F               	movlw	31
  3866  006CCC  640E               	cpfsgt	__div_to_l_@exp1,c
  3867  006CCE  D007               	goto	l2621
  3868  006CD0  D7B7               	goto	l2577
  3869  006CD2                     l2619:
  3870  006CD2  90D8               	bcf	status,0,c
  3871  006CD4  3609               	rlcf	__div_to_l_@quot,f,c
  3872  006CD6  360A               	rlcf	__div_to_l_@quot+1,f,c
  3873  006CD8  360B               	rlcf	__div_to_l_@quot+2,f,c
  3874  006CDA  360C               	rlcf	__div_to_l_@quot+3,f,c
  3875  006CDC  060E               	decf	__div_to_l_@exp1,f,c
  3876  006CDE                     l2621:
  3877  006CDE  500E               	movf	__div_to_l_@exp1,w,c
  3878  006CE0  E1F8               	bnz	l2619
  3879  006CE2                     l698:
  3880  006CE2  C009  F001         	movff	__div_to_l_@quot,?__div_to_l_
  3881  006CE6  C00A  F002         	movff	__div_to_l_@quot+1,?__div_to_l_+1
  3882  006CEA  C00B  F003         	movff	__div_to_l_@quot+2,?__div_to_l_+2
  3883  006CEE  C00C  F004         	movff	__div_to_l_@quot+3,?__div_to_l_+3
  3884  006CF2                     l689:
  3885  006CF2  0012               	return		;funcret
  3886  006CF4                     __end_of__div_to_l_:
  3887                           	opt stack 0
  3888                           tblptru	equ	0xFF8
  3889                           tblptrh	equ	0xFF7
  3890                           tblptrl	equ	0xFF6
  3891                           tablat	equ	0xFF5
  3892                           prodh	equ	0xFF4
  3893                           prodl	equ	0xFF3
  3894                           indf0	equ	0xFEF
  3895                           fsr0h	equ	0xFEA
  3896                           fsr0l	equ	0xFE9
  3897                           wreg	equ	0xFE8
  3898                           indf2	equ	0xFDF
  3899                           postinc2	equ	0xFDE
  3900                           postdec2	equ	0xFDD
  3901                           fsr2h	equ	0xFDA
  3902                           fsr2l	equ	0xFD9
  3903                           status	equ	0xFD8
  3904                           
  3905 ;; *************** function ___wmul *****************
  3906 ;; Defined at:
  3907 ;;		line 15 in file "C:\Program Files (x86)\Microchip\xc8\v1.34\sources\common\Umul16.c"
  3908 ;; Parameters:    Size  Location     Type
  3909 ;;  multiplier      2    0[COMRAM] unsigned int 
  3910 ;;  multiplicand    2    2[COMRAM] unsigned int 
  3911 ;; Auto vars:     Size  Location     Type
  3912 ;;  product         2    4[COMRAM] unsigned int 
  3913 ;; Return value:  Size  Location     Type
  3914 ;;                  2    0[COMRAM] unsigned int 
  3915 ;; Registers used:
  3916 ;;		wreg, status,2, status,0, prodl, prodh
  3917 ;; Tracked objects:
  3918 ;;		On entry : 0/0
  3919 ;;		On exit  : 0/0
  3920 ;;		Unchanged: 0/0
  3921 ;; Data sizes:     COMRAM   BANK0   BANK1   BANK2   BANK3   BANK4   BANK5
  3922 ;;      Params:         4       0       0       0       0       0       0
  3923 ;;      Locals:         2       0       0       0       0       0       0
  3924 ;;      Temps:          0       0       0       0       0       0       0
  3925 ;;      Totals:         6       0       0       0       0       0       0
  3926 ;;Total ram usage:        6 bytes
  3927 ;; Hardware stack levels used:    1
  3928 ;; This function calls:
  3929 ;;		Nothing
  3930 ;; This function is called by:
  3931 ;;		_sprintf
  3932 ;; This function uses a non-reentrant model
  3933 ;;
  3934                           
  3935                           	psect	text11
  3936  0065AC                     __ptext11:
  3937                           	opt stack 0
  3938  0065AC                     ___wmul:
  3939                           	opt stack 29
  3940                           
  3941                           ;incstack = 0
  3942  0065AC  5001               	movf	___wmul@multiplier,w,c
  3943  0065AE  0203               	mulwf	___wmul@multiplicand,c
  3944  0065B0  CFF3 F005          	movff	prodl,___wmul@product
  3945  0065B4  CFF4 F006          	movff	prodh,___wmul@product+1
  3946  0065B8  5001               	movf	___wmul@multiplier,w,c
  3947  0065BA  0204               	mulwf	___wmul@multiplicand+1,c
  3948  0065BC  50F3               	movf	prodl,w,c
  3949  0065BE  2606               	addwf	___wmul@product+1,f,c
  3950  0065C0  5002               	movf	___wmul@multiplier+1,w,c
  3951  0065C2  0203               	mulwf	___wmul@multiplicand,c
  3952  0065C4  50F3               	movf	prodl,w,c
  3953  0065C6  2606               	addwf	___wmul@product+1,f,c
  3954  0065C8  C005  F001         	movff	___wmul@product,?___wmul
  3955  0065CC  C006  F002         	movff	___wmul@product+1,?___wmul+1
  3956  0065D0  0012               	return		;funcret
  3957  0065D2                     __end_of___wmul:
  3958                           	opt stack 0
  3959                           tblptru	equ	0xFF8
  3960                           tblptrh	equ	0xFF7
  3961                           tblptrl	equ	0xFF6
  3962                           tablat	equ	0xFF5
  3963                           prodh	equ	0xFF4
  3964                           prodl	equ	0xFF3
  3965                           indf0	equ	0xFEF
  3966                           fsr0h	equ	0xFEA
  3967                           fsr0l	equ	0xFE9
  3968                           wreg	equ	0xFE8
  3969                           indf2	equ	0xFDF
  3970                           postinc2	equ	0xFDE
  3971                           postdec2	equ	0xFDD
  3972                           fsr2h	equ	0xFDA
  3973                           fsr2l	equ	0xFD9
  3974                           status	equ	0xFD8
  3975                           
  3976 ;; *************** function ___lltofl *****************
  3977 ;; Defined at:
  3978 ;;		line 30 in file "C:\Program Files (x86)\Microchip\xc8\v1.34\sources\common\lltofl.c"
  3979 ;; Parameters:    Size  Location     Type
  3980 ;;  c               4   10[COMRAM] unsigned long 
  3981 ;; Auto vars:     Size  Location     Type
  3982 ;;		None
  3983 ;; Return value:  Size  Location     Type
  3984 ;;                  4   10[COMRAM] unsigned long 
  3985 ;; Registers used:
  3986 ;;		wreg, status,2, status,0, cstack
  3987 ;; Tracked objects:
  3988 ;;		On entry : 0/0
  3989 ;;		On exit  : 0/0
  3990 ;;		Unchanged: 0/0
  3991 ;; Data sizes:     COMRAM   BANK0   BANK1   BANK2   BANK3   BANK4   BANK5
  3992 ;;      Params:         4       0       0       0       0       0       0
  3993 ;;      Locals:         0       0       0       0       0       0       0
  3994 ;;      Temps:          0       0       0       0       0       0       0
  3995 ;;      Totals:         4       0       0       0       0       0       0
  3996 ;;Total ram usage:        4 bytes
  3997 ;; Hardware stack levels used:    1
  3998 ;; Hardware stack levels required when called:    1
  3999 ;; This function calls:
  4000 ;;		___flpack
  4001 ;; This function is called by:
  4002 ;;		_sprintf
  4003 ;; This function uses a non-reentrant model
  4004 ;;
  4005                           
  4006                           	psect	text12
  4007  006676                     __ptext12:
  4008                           	opt stack 0
  4009  006676                     ___lltofl:
  4010                           	opt stack 28
  4011                           
  4012                           ;incstack = 0
  4013  006676  C00B  F001         	movff	___lltofl@c,___flpack@arg
  4014  00667A  C00C  F002         	movff	___lltofl@c+1,___flpack@arg+1
  4015  00667E  C00D  F003         	movff	___lltofl@c+2,___flpack@arg+2
  4016  006682  C00E  F004         	movff	___lltofl@c+3,___flpack@arg+3
  4017  006686  0E96               	movlw	150
  4018  006688  6E05               	movwf	___flpack@exp,c
  4019  00668A  0E00               	movlw	0
  4020  00668C  6E06               	movwf	___flpack@sign,c
  4021  00668E  EC7A  F036         	call	___flpack	;wreg free
  4022  006692  C001  F00B         	movff	?___flpack,?___lltofl
  4023  006696  C002  F00C         	movff	?___flpack+1,?___lltofl+1
  4024  00669A  C003  F00D         	movff	?___flpack+2,?___lltofl+2
  4025  00669E  C004  F00E         	movff	?___flpack+3,?___lltofl+3
  4026  0066A2  0012               	return		;funcret
  4027  0066A4                     __end_of___lltofl:
  4028                           	opt stack 0
  4029                           tblptru	equ	0xFF8
  4030                           tblptrh	equ	0xFF7
  4031                           tblptrl	equ	0xFF6
  4032                           tablat	equ	0xFF5
  4033                           prodh	equ	0xFF4
  4034                           prodl	equ	0xFF3
  4035                           indf0	equ	0xFEF
  4036                           fsr0h	equ	0xFEA
  4037                           fsr0l	equ	0xFE9
  4038                           wreg	equ	0xFE8
  4039                           indf2	equ	0xFDF
  4040                           postinc2	equ	0xFDE
  4041                           postdec2	equ	0xFDD
  4042                           fsr2h	equ	0xFDA
  4043                           fsr2l	equ	0xFD9
  4044                           status	equ	0xFD8
  4045                           
  4046 ;; *************** function ___llmod *****************
  4047 ;; Defined at:
  4048 ;;		line 8 in file "C:\Program Files (x86)\Microchip\xc8\v1.34\sources\common\llmod.c"
  4049 ;; Parameters:    Size  Location     Type
  4050 ;;  dividend        4   13[COMRAM] unsigned long 
  4051 ;;  divisor         4   17[COMRAM] unsigned long 
  4052 ;; Auto vars:     Size  Location     Type
  4053 ;;  counter         1   21[COMRAM] unsigned char 
  4054 ;; Return value:  Size  Location     Type
  4055 ;;                  4   13[COMRAM] unsigned long 
  4056 ;; Registers used:
  4057 ;;		wreg, status,2, status,0
  4058 ;; Tracked objects:
  4059 ;;		On entry : 0/0
  4060 ;;		On exit  : 0/0
  4061 ;;		Unchanged: 0/0
  4062 ;; Data sizes:     COMRAM   BANK0   BANK1   BANK2   BANK3   BANK4   BANK5
  4063 ;;      Params:         8       0       0       0       0       0       0
  4064 ;;      Locals:         1       0       0       0       0       0       0
  4065 ;;      Temps:          0       0       0       0       0       0       0
  4066 ;;      Totals:         9       0       0       0       0       0       0
  4067 ;;Total ram usage:        9 bytes
  4068 ;; Hardware stack levels used:    1
  4069 ;; This function calls:
  4070 ;;		Nothing
  4071 ;; This function is called by:
  4072 ;;		_sprintf
  4073 ;; This function uses a non-reentrant model
  4074 ;;
  4075                           
  4076                           	psect	text13
  4077  006882                     __ptext13:
  4078                           	opt stack 0
  4079  006882                     ___llmod:
  4080                           	opt stack 29
  4081                           
  4082                           ;incstack = 0
  4083  006882  5012               	movf	___llmod@divisor,w,c
  4084  006884  1013               	iorwf	___llmod@divisor+1,w,c
  4085  006886  1014               	iorwf	___llmod@divisor+2,w,c
  4086  006888  1015               	iorwf	___llmod@divisor+3,w,c
  4087  00688A  E023               	bz	l909
  4088  00688C  0E01               	movlw	1
  4089  00688E  6E16               	movwf	___llmod@counter,c
  4090  006890  D006               	goto	l2773
  4091  006892                     l2771:
  4092  006892  90D8               	bcf	status,0,c
  4093  006894  3612               	rlcf	___llmod@divisor,f,c
  4094  006896  3613               	rlcf	___llmod@divisor+1,f,c
  4095  006898  3614               	rlcf	___llmod@divisor+2,f,c
  4096  00689A  3615               	rlcf	___llmod@divisor+3,f,c
  4097  00689C  2A16               	incf	___llmod@counter,f,c
  4098  00689E                     l2773:
  4099  00689E  AE15               	btfss	___llmod@divisor+3,7,c
  4100  0068A0  D7F8               	goto	l2771
  4101  0068A2                     l2775:
  4102  0068A2  5012               	movf	___llmod@divisor,w,c
  4103  0068A4  5C0E               	subwf	___llmod@dividend,w,c
  4104  0068A6  5013               	movf	___llmod@divisor+1,w,c
  4105  0068A8  580F               	subwfb	___llmod@dividend+1,w,c
  4106  0068AA  5014               	movf	___llmod@divisor+2,w,c
  4107  0068AC  5810               	subwfb	___llmod@dividend+2,w,c
  4108  0068AE  5015               	movf	___llmod@divisor+3,w,c
  4109  0068B0  5811               	subwfb	___llmod@dividend+3,w,c
  4110  0068B2  E308               	bnc	l2779
  4111  0068B4  5012               	movf	___llmod@divisor,w,c
  4112  0068B6  5E0E               	subwf	___llmod@dividend,f,c
  4113  0068B8  5013               	movf	___llmod@divisor+1,w,c
  4114  0068BA  5A0F               	subwfb	___llmod@dividend+1,f,c
  4115  0068BC  5014               	movf	___llmod@divisor+2,w,c
  4116  0068BE  5A10               	subwfb	___llmod@dividend+2,f,c
  4117  0068C0  5015               	movf	___llmod@divisor+3,w,c
  4118  0068C2  5A11               	subwfb	___llmod@dividend+3,f,c
  4119  0068C4                     l2779:
  4120  0068C4  90D8               	bcf	status,0,c
  4121  0068C6  3215               	rrcf	___llmod@divisor+3,f,c
  4122  0068C8  3214               	rrcf	___llmod@divisor+2,f,c
  4123  0068CA  3213               	rrcf	___llmod@divisor+1,f,c
  4124  0068CC  3212               	rrcf	___llmod@divisor,f,c
  4125  0068CE  2E16               	decfsz	___llmod@counter,f,c
  4126  0068D0  D7E8               	goto	l2775
  4127  0068D2                     l909:
  4128  0068D2  C00E  F00E         	movff	___llmod@dividend,?___llmod
  4129  0068D6  C00F  F00F         	movff	___llmod@dividend+1,?___llmod+1
  4130  0068DA  C010  F010         	movff	___llmod@dividend+2,?___llmod+2
  4131  0068DE  C011  F011         	movff	___llmod@dividend+3,?___llmod+3
  4132  0068E2  0012               	return		;funcret
  4133  0068E4                     __end_of___llmod:
  4134                           	opt stack 0
  4135                           tblptru	equ	0xFF8
  4136                           tblptrh	equ	0xFF7
  4137                           tblptrl	equ	0xFF6
  4138                           tablat	equ	0xFF5
  4139                           prodh	equ	0xFF4
  4140                           prodl	equ	0xFF3
  4141                           indf0	equ	0xFEF
  4142                           fsr0h	equ	0xFEA
  4143                           fsr0l	equ	0xFE9
  4144                           wreg	equ	0xFE8
  4145                           indf2	equ	0xFDF
  4146                           postinc2	equ	0xFDE
  4147                           postdec2	equ	0xFDD
  4148                           fsr2h	equ	0xFDA
  4149                           fsr2l	equ	0xFD9
  4150                           status	equ	0xFD8
  4151                           
  4152 ;; *************** function ___lldiv *****************
  4153 ;; Defined at:
  4154 ;;		line 8 in file "C:\Program Files (x86)\Microchip\xc8\v1.34\sources\common\lldiv.c"
  4155 ;; Parameters:    Size  Location     Type
  4156 ;;  dividend        4    0[COMRAM] unsigned long 
  4157 ;;  divisor         4    4[COMRAM] unsigned long 
  4158 ;; Auto vars:     Size  Location     Type
  4159 ;;  quotient        4    8[COMRAM] unsigned long 
  4160 ;;  counter         1   12[COMRAM] unsigned char 
  4161 ;; Return value:  Size  Location     Type
  4162 ;;                  4    0[COMRAM] unsigned long 
  4163 ;; Registers used:
  4164 ;;		wreg, status,2, status,0
  4165 ;; Tracked objects:
  4166 ;;		On entry : 0/0
  4167 ;;		On exit  : 0/0
  4168 ;;		Unchanged: 0/0
  4169 ;; Data sizes:     COMRAM   BANK0   BANK1   BANK2   BANK3   BANK4   BANK5
  4170 ;;      Params:         8       0       0       0       0       0       0
  4171 ;;      Locals:         5       0       0       0       0       0       0
  4172 ;;      Temps:          0       0       0       0       0       0       0
  4173 ;;      Totals:        13       0       0       0       0       0       0
  4174 ;;Total ram usage:       13 bytes
  4175 ;; Hardware stack levels used:    1
  4176 ;; This function calls:
  4177 ;;		Nothing
  4178 ;; This function is called by:
  4179 ;;		_sprintf
  4180 ;; This function uses a non-reentrant model
  4181 ;;
  4182                           
  4183                           	psect	text14
  4184  00694C                     __ptext14:
  4185                           	opt stack 0
  4186  00694C                     ___lldiv:
  4187                           	opt stack 29
  4188                           
  4189                           ;incstack = 0
  4190  00694C  6A09               	clrf	___lldiv@quotient,c
  4191  00694E  6A0A               	clrf	___lldiv@quotient+1,c
  4192  006950  6A0B               	clrf	___lldiv@quotient+2,c
  4193  006952  6A0C               	clrf	___lldiv@quotient+3,c
  4194  006954  5005               	movf	___lldiv@divisor,w,c
  4195  006956  1006               	iorwf	___lldiv@divisor+1,w,c
  4196  006958  1007               	iorwf	___lldiv@divisor+2,w,c
  4197  00695A  1008               	iorwf	___lldiv@divisor+3,w,c
  4198  00695C  E029               	bz	l899
  4199  00695E  0E01               	movlw	1
  4200  006960  6E0D               	movwf	___lldiv@counter,c
  4201  006962  D006               	goto	l2753
  4202  006964                     l2751:
  4203  006964  90D8               	bcf	status,0,c
  4204  006966  3605               	rlcf	___lldiv@divisor,f,c
  4205  006968  3606               	rlcf	___lldiv@divisor+1,f,c
  4206  00696A  3607               	rlcf	___lldiv@divisor+2,f,c
  4207  00696C  3608               	rlcf	___lldiv@divisor+3,f,c
  4208  00696E  2A0D               	incf	___lldiv@counter,f,c
  4209  006970                     l2753:
  4210  006970  AE08               	btfss	___lldiv@divisor+3,7,c
  4211  006972  D7F8               	goto	l2751
  4212  006974                     l2755:
  4213  006974  90D8               	bcf	status,0,c
  4214  006976  3609               	rlcf	___lldiv@quotient,f,c
  4215  006978  360A               	rlcf	___lldiv@quotient+1,f,c
  4216  00697A  360B               	rlcf	___lldiv@quotient+2,f,c
  4217  00697C  360C               	rlcf	___lldiv@quotient+3,f,c
  4218  00697E  5005               	movf	___lldiv@divisor,w,c
  4219  006980  5C01               	subwf	___lldiv@dividend,w,c
  4220  006982  5006               	movf	___lldiv@divisor+1,w,c
  4221  006984  5802               	subwfb	___lldiv@dividend+1,w,c
  4222  006986  5007               	movf	___lldiv@divisor+2,w,c
  4223  006988  5803               	subwfb	___lldiv@dividend+2,w,c
  4224  00698A  5008               	movf	___lldiv@divisor+3,w,c
  4225  00698C  5804               	subwfb	___lldiv@dividend+3,w,c
  4226  00698E  E309               	bnc	l2763
  4227  006990  5005               	movf	___lldiv@divisor,w,c
  4228  006992  5E01               	subwf	___lldiv@dividend,f,c
  4229  006994  5006               	movf	___lldiv@divisor+1,w,c
  4230  006996  5A02               	subwfb	___lldiv@dividend+1,f,c
  4231  006998  5007               	movf	___lldiv@divisor+2,w,c
  4232  00699A  5A03               	subwfb	___lldiv@dividend+2,f,c
  4233  00699C  5008               	movf	___lldiv@divisor+3,w,c
  4234  00699E  5A04               	subwfb	___lldiv@dividend+3,f,c
  4235  0069A0  8009               	bsf	___lldiv@quotient,0,c
  4236  0069A2                     l2763:
  4237  0069A2  90D8               	bcf	status,0,c
  4238  0069A4  3208               	rrcf	___lldiv@divisor+3,f,c
  4239  0069A6  3207               	rrcf	___lldiv@divisor+2,f,c
  4240  0069A8  3206               	rrcf	___lldiv@divisor+1,f,c
  4241  0069AA  3205               	rrcf	___lldiv@divisor,f,c
  4242  0069AC  2E0D               	decfsz	___lldiv@counter,f,c
  4243  0069AE  D7E2               	goto	l2755
  4244  0069B0                     l899:
  4245  0069B0  C009  F001         	movff	___lldiv@quotient,?___lldiv
  4246  0069B4  C00A  F002         	movff	___lldiv@quotient+1,?___lldiv+1
  4247  0069B8  C00B  F003         	movff	___lldiv@quotient+2,?___lldiv+2
  4248  0069BC  C00C  F004         	movff	___lldiv@quotient+3,?___lldiv+3
  4249  0069C0  0012               	return		;funcret
  4250  0069C2                     __end_of___lldiv:
  4251                           	opt stack 0
  4252                           tblptru	equ	0xFF8
  4253                           tblptrh	equ	0xFF7
  4254                           tblptrl	equ	0xFF6
  4255                           tablat	equ	0xFF5
  4256                           prodh	equ	0xFF4
  4257                           prodl	equ	0xFF3
  4258                           indf0	equ	0xFEF
  4259                           fsr0h	equ	0xFEA
  4260                           fsr0l	equ	0xFE9
  4261                           wreg	equ	0xFE8
  4262                           indf2	equ	0xFDF
  4263                           postinc2	equ	0xFDE
  4264                           postdec2	equ	0xFDD
  4265                           fsr2h	equ	0xFDA
  4266                           fsr2l	equ	0xFD9
  4267                           status	equ	0xFD8
  4268                           
  4269 ;; *************** function ___fltol *****************
  4270 ;; Defined at:
  4271 ;;		line 43 in file "C:\Program Files (x86)\Microchip\xc8\v1.34\sources\common\fltol.c"
  4272 ;; Parameters:    Size  Location     Type
  4273 ;;  f1              4   38[COMRAM] unsigned long 
  4274 ;; Auto vars:     Size  Location     Type
  4275 ;;  exp1            1   47[COMRAM] unsigned char 
  4276 ;;  sign1           1   46[COMRAM] unsigned char 
  4277 ;; Return value:  Size  Location     Type
  4278 ;;                  4   38[COMRAM] long 
  4279 ;; Registers used:
  4280 ;;		wreg, status,2, status,0
  4281 ;; Tracked objects:
  4282 ;;		On entry : 0/0
  4283 ;;		On exit  : 0/0
  4284 ;;		Unchanged: 0/0
  4285 ;; Data sizes:     COMRAM   BANK0   BANK1   BANK2   BANK3   BANK4   BANK5
  4286 ;;      Params:         4       0       0       0       0       0       0
  4287 ;;      Locals:         2       0       0       0       0       0       0
  4288 ;;      Temps:          4       0       0       0       0       0       0
  4289 ;;      Totals:        10       0       0       0       0       0       0
  4290 ;;Total ram usage:       10 bytes
  4291 ;; Hardware stack levels used:    1
  4292 ;; This function calls:
  4293 ;;		Nothing
  4294 ;; This function is called by:
  4295 ;;		_sprintf
  4296 ;; This function uses a non-reentrant model
  4297 ;;
  4298                           
  4299                           	psect	text15
  4300  006A3A                     __ptext15:
  4301                           	opt stack 0
  4302  006A3A                     ___fltol:
  4303                           	opt stack 29
  4304                           
  4305                           ;incstack = 0
  4306  006A3A  3429               	rlcf	___fltol@f1+2,w,c
  4307  006A3C  342A               	rlcf	___fltol@f1+3,w,c
  4308  006A3E  6E30               	movwf	___fltol@exp1,c
  4309  006A40  5030               	movf	___fltol@exp1,w,c
  4310  006A42  E105               	bnz	l2711
  4311  006A44                     l2709:
  4312  006A44  6A27               	clrf	?___fltol,c
  4313  006A46  6A28               	clrf	?___fltol+1,c
  4314  006A48  6A29               	clrf	?___fltol+2,c
  4315  006A4A  6A2A               	clrf	?___fltol+3,c
  4316  006A4C  D043               	goto	l753
  4317  006A4E                     l2711:
  4318  006A4E  C027  F02B         	movff	___fltol@f1,??___fltol
  4319  006A52  C028  F02C         	movff	___fltol@f1+1,??___fltol+1
  4320  006A56  C029  F02D         	movff	___fltol@f1+2,??___fltol+2
  4321  006A5A  C02A  F02E         	movff	___fltol@f1+3,??___fltol+3
  4322  006A5E  0E20               	movlw	32
  4323  006A60  D005               	goto	u2660
  4324  006A62                     u2665:
  4325  006A62  90D8               	bcf	status,0,c
  4326  006A64  322E               	rrcf	??___fltol+3,f,c
  4327  006A66  322D               	rrcf	??___fltol+2,f,c
  4328  006A68  322C               	rrcf	??___fltol+1,f,c
  4329  006A6A  322B               	rrcf	??___fltol,f,c
  4330  006A6C                     u2660:
  4331  006A6C  2EE8               	decfsz	wreg,f,c
  4332  006A6E  D7F9               	goto	u2665
  4333  006A70  502B               	movf	??___fltol,w,c
  4334  006A72  6E2F               	movwf	___fltol@sign1,c
  4335  006A74  8E29               	bsf	___fltol@f1+2,7,c
  4336  006A76  6A2A               	clrf	___fltol@f1+3,c
  4337  006A78  0E96               	movlw	150
  4338  006A7A  5E30               	subwf	___fltol@exp1,f,c
  4339  006A7C  AE30               	btfss	___fltol@exp1,7,c
  4340  006A7E  D00C               	goto	l2729
  4341  006A80  5030               	movf	___fltol@exp1,w,c
  4342  006A82  0A80               	xorlw	128
  4343  006A84  0F97               	addlw	151
  4344  006A86  E3DE               	bnc	l2709
  4345  006A88                     l2725:
  4346  006A88  90D8               	bcf	status,0,c
  4347  006A8A  322A               	rrcf	___fltol@f1+3,f,c
  4348  006A8C  3229               	rrcf	___fltol@f1+2,f,c
  4349  006A8E  3228               	rrcf	___fltol@f1+1,f,c
  4350  006A90  3227               	rrcf	___fltol@f1,f,c
  4351  006A92  3E30               	incfsz	___fltol@exp1,f,c
  4352  006A94  D7F9               	goto	l2725
  4353  006A96  D00C               	goto	l2737
  4354  006A98                     l2729:
  4355  006A98  0E1F               	movlw	31
  4356  006A9A  6430               	cpfsgt	___fltol@exp1,c
  4357  006A9C  D007               	goto	l2735
  4358  006A9E  D7D2               	goto	l2709
  4359  006AA0                     l2733:
  4360  006AA0  90D8               	bcf	status,0,c
  4361  006AA2  3627               	rlcf	___fltol@f1,f,c
  4362  006AA4  3628               	rlcf	___fltol@f1+1,f,c
  4363  006AA6  3629               	rlcf	___fltol@f1+2,f,c
  4364  006AA8  362A               	rlcf	___fltol@f1+3,f,c
  4365  006AAA  0630               	decf	___fltol@exp1,f,c
  4366  006AAC                     l2735:
  4367  006AAC  5030               	movf	___fltol@exp1,w,c
  4368  006AAE  E1F8               	bnz	l2733
  4369  006AB0                     l2737:
  4370  006AB0  502F               	movf	___fltol@sign1,w,c
  4371  006AB2  E008               	bz	l2741
  4372  006AB4  1E2A               	comf	___fltol@f1+3,f,c
  4373  006AB6  1E29               	comf	___fltol@f1+2,f,c
  4374  006AB8  1E28               	comf	___fltol@f1+1,f,c
  4375  006ABA  6C27               	negf	___fltol@f1,c
  4376  006ABC  0E00               	movlw	0
  4377  006ABE  2228               	addwfc	___fltol@f1+1,f,c
  4378  006AC0  2229               	addwfc	___fltol@f1+2,f,c
  4379  006AC2  222A               	addwfc	___fltol@f1+3,f,c
  4380  006AC4                     l2741:
  4381  006AC4  C027  F027         	movff	___fltol@f1,?___fltol
  4382  006AC8  C028  F028         	movff	___fltol@f1+1,?___fltol+1
  4383  006ACC  C029  F029         	movff	___fltol@f1+2,?___fltol+2
  4384  006AD0  C02A  F02A         	movff	___fltol@f1+3,?___fltol+3
  4385  006AD4                     l753:
  4386  006AD4  0012               	return		;funcret
  4387  006AD6                     __end_of___fltol:
  4388                           	opt stack 0
  4389                           tblptru	equ	0xFF8
  4390                           tblptrh	equ	0xFF7
  4391                           tblptrl	equ	0xFF6
  4392                           tablat	equ	0xFF5
  4393                           prodh	equ	0xFF4
  4394                           prodl	equ	0xFF3
  4395                           indf0	equ	0xFEF
  4396                           fsr0h	equ	0xFEA
  4397                           fsr0l	equ	0xFE9
  4398                           wreg	equ	0xFE8
  4399                           indf2	equ	0xFDF
  4400                           postinc2	equ	0xFDE
  4401                           postdec2	equ	0xFDD
  4402                           fsr2h	equ	0xFDA
  4403                           fsr2l	equ	0xFD9
  4404                           status	equ	0xFD8
  4405                           
  4406 ;; *************** function ___flsub *****************
  4407 ;; Defined at:
  4408 ;;		line 20 in file "C:\Program Files (x86)\Microchip\xc8\v1.34\sources\common\flsub.c"
  4409 ;; Parameters:    Size  Location     Type
  4410 ;;  f1              4   58[COMRAM] long 
  4411 ;;  f2              4   62[COMRAM] long 
  4412 ;; Auto vars:     Size  Location     Type
  4413 ;;		None
  4414 ;; Return value:  Size  Location     Type
  4415 ;;                  4   58[COMRAM] long 
  4416 ;; Registers used:
  4417 ;;		wreg, status,2, status,0, cstack
  4418 ;; Tracked objects:
  4419 ;;		On entry : 0/0
  4420 ;;		On exit  : 0/0
  4421 ;;		Unchanged: 0/0
  4422 ;; Data sizes:     COMRAM   BANK0   BANK1   BANK2   BANK3   BANK4   BANK5
  4423 ;;      Params:         8       0       0       0       0       0       0
  4424 ;;      Locals:         0       0       0       0       0       0       0
  4425 ;;      Temps:          0       0       0       0       0       0       0
  4426 ;;      Totals:         8       0       0       0       0       0       0
  4427 ;;Total ram usage:        8 bytes
  4428 ;; Hardware stack levels used:    1
  4429 ;; Hardware stack levels required when called:    2
  4430 ;; This function calls:
  4431 ;;		___fladd
  4432 ;; This function is called by:
  4433 ;;		_sprintf
  4434 ;; This function uses a non-reentrant model
  4435 ;;
  4436                           
  4437                           	psect	text16
  4438  00674E                     __ptext16:
  4439                           	opt stack 0
  4440  00674E                     ___flsub:
  4441                           	opt stack 27
  4442                           
  4443                           ;incstack = 0
  4444  00674E  503F               	movf	___flsub@f2,w,c
  4445  006750  1040               	iorwf	___flsub@f2+1,w,c
  4446  006752  1041               	iorwf	___flsub@f2+2,w,c
  4447  006754  1042               	iorwf	___flsub@f2+3,w,c
  4448  006756  E002               	bz	l2681
  4449  006758  0E80               	movlw	128
  4450  00675A  1A42               	xorwf	___flsub@f2+3,f,c
  4451  00675C                     l2681:
  4452  00675C  C03B  F02F         	movff	___flsub@f1,___fladd@f1
  4453  006760  C03C  F030         	movff	___flsub@f1+1,___fladd@f1+1
  4454  006764  C03D  F031         	movff	___flsub@f1+2,___fladd@f1+2
  4455  006768  C03E  F032         	movff	___flsub@f1+3,___fladd@f1+3
  4456  00676C  C03F  F033         	movff	___flsub@f2,___fladd@f2
  4457  006770  C040  F034         	movff	___flsub@f2+1,___fladd@f2+1
  4458  006774  C041  F035         	movff	___flsub@f2+2,___fladd@f2+2
  4459  006778  C042  F036         	movff	___flsub@f2+3,___fladd@f2+3
  4460  00677C  ECA9  F038         	call	___fladd	;wreg free
  4461  006780  C02F  F03B         	movff	?___fladd,?___flsub
  4462  006784  C030  F03C         	movff	?___fladd+1,?___flsub+1
  4463  006788  C031  F03D         	movff	?___fladd+2,?___flsub+2
  4464  00678C  C032  F03E         	movff	?___fladd+3,?___flsub+3
  4465  006790  0012               	return		;funcret
  4466  006792                     __end_of___flsub:
  4467                           	opt stack 0
  4468                           tblptru	equ	0xFF8
  4469                           tblptrh	equ	0xFF7
  4470                           tblptrl	equ	0xFF6
  4471                           tablat	equ	0xFF5
  4472                           prodh	equ	0xFF4
  4473                           prodl	equ	0xFF3
  4474                           indf0	equ	0xFEF
  4475                           fsr0h	equ	0xFEA
  4476                           fsr0l	equ	0xFE9
  4477                           wreg	equ	0xFE8
  4478                           indf2	equ	0xFDF
  4479                           postinc2	equ	0xFDE
  4480                           postdec2	equ	0xFDD
  4481                           fsr2h	equ	0xFDA
  4482                           fsr2l	equ	0xFD9
  4483                           status	equ	0xFD8
  4484                           
  4485 ;; *************** function ___flneg *****************
  4486 ;; Defined at:
  4487 ;;		line 15 in file "C:\Program Files (x86)\Microchip\xc8\v1.34\sources\common\flneg.c"
  4488 ;; Parameters:    Size  Location     Type
  4489 ;;  f1              4    0[COMRAM] long 
  4490 ;; Auto vars:     Size  Location     Type
  4491 ;;		None
  4492 ;; Return value:  Size  Location     Type
  4493 ;;                  4    0[COMRAM] long 
  4494 ;; Registers used:
  4495 ;;		wreg, status,2, status,0
  4496 ;; Tracked objects:
  4497 ;;		On entry : 0/0
  4498 ;;		On exit  : 0/0
  4499 ;;		Unchanged: 0/0
  4500 ;; Data sizes:     COMRAM   BANK0   BANK1   BANK2   BANK3   BANK4   BANK5
  4501 ;;      Params:         4       0       0       0       0       0       0
  4502 ;;      Locals:         0       0       0       0       0       0       0
  4503 ;;      Temps:          0       0       0       0       0       0       0
  4504 ;;      Totals:         4       0       0       0       0       0       0
  4505 ;;Total ram usage:        4 bytes
  4506 ;; Hardware stack levels used:    1
  4507 ;; This function calls:
  4508 ;;		Nothing
  4509 ;; This function is called by:
  4510 ;;		_sprintf
  4511 ;; This function uses a non-reentrant model
  4512 ;;
  4513                           
  4514                           	psect	text17
  4515  006566                     __ptext17:
  4516                           	opt stack 0
  4517  006566                     ___flneg:
  4518                           	opt stack 29
  4519                           
  4520                           ;incstack = 0
  4521  006566  5001               	movf	___flneg@f1,w,c
  4522  006568  1002               	iorwf	___flneg@f1+1,w,c
  4523  00656A  1003               	iorwf	___flneg@f1+2,w,c
  4524  00656C  1004               	iorwf	___flneg@f1+3,w,c
  4525  00656E  E002               	bz	l2703
  4526  006570  0E80               	movlw	128
  4527  006572  1A04               	xorwf	___flneg@f1+3,f,c
  4528  006574                     l2703:
  4529  006574  C001  F001         	movff	___flneg@f1,?___flneg
  4530  006578  C002  F002         	movff	___flneg@f1+1,?___flneg+1
  4531  00657C  C003  F003         	movff	___flneg@f1+2,?___flneg+2
  4532  006580  C004  F004         	movff	___flneg@f1+3,?___flneg+3
  4533  006584  0012               	return		;funcret
  4534  006586                     __end_of___flneg:
  4535                           	opt stack 0
  4536                           tblptru	equ	0xFF8
  4537                           tblptrh	equ	0xFF7
  4538                           tblptrl	equ	0xFF6
  4539                           tablat	equ	0xFF5
  4540                           prodh	equ	0xFF4
  4541                           prodl	equ	0xFF3
  4542                           indf0	equ	0xFEF
  4543                           fsr0h	equ	0xFEA
  4544                           fsr0l	equ	0xFE9
  4545                           wreg	equ	0xFE8
  4546                           indf2	equ	0xFDF
  4547                           postinc2	equ	0xFDE
  4548                           postdec2	equ	0xFDD
  4549                           fsr2h	equ	0xFDA
  4550                           fsr2l	equ	0xFD9
  4551                           status	equ	0xFD8
  4552                           
  4553 ;; *************** function ___flge *****************
  4554 ;; Defined at:
  4555 ;;		line 4 in file "C:\Program Files (x86)\Microchip\xc8\v1.34\sources\common\flge.c"
  4556 ;; Parameters:    Size  Location     Type
  4557 ;;  ff1             4    0[COMRAM] long 
  4558 ;;  ff2             4    4[COMRAM] long 
  4559 ;; Auto vars:     Size  Location     Type
  4560 ;;		None
  4561 ;; Return value:  Size  Location     Type
  4562 ;;		None               void
  4563 ;; Registers used:
  4564 ;;		wreg, status,2, status,0
  4565 ;; Tracked objects:
  4566 ;;		On entry : 0/0
  4567 ;;		On exit  : 0/0
  4568 ;;		Unchanged: 0/0
  4569 ;; Data sizes:     COMRAM   BANK0   BANK1   BANK2   BANK3   BANK4   BANK5
  4570 ;;      Params:         8       0       0       0       0       0       0
  4571 ;;      Locals:         0       0       0       0       0       0       0
  4572 ;;      Temps:          0       0       0       0       0       0       0
  4573 ;;      Totals:         8       0       0       0       0       0       0
  4574 ;;Total ram usage:        8 bytes
  4575 ;; Hardware stack levels used:    1
  4576 ;; This function calls:
  4577 ;;		Nothing
  4578 ;; This function is called by:
  4579 ;;		_sprintf
  4580 ;; This function uses a non-reentrant model
  4581 ;;
  4582                           
  4583                           	psect	text18
  4584  0067DA                     __ptext18:
  4585                           	opt stack 0
  4586  0067DA                     ___flge:
  4587                           	opt stack 29
  4588                           
  4589                           ;incstack = 0
  4590  0067DA  AE04               	btfss	___flge@ff1+3,7,c
  4591  0067DC  D009               	goto	l2689
  4592  0067DE  6C01               	negf	___flge@ff1,c
  4593  0067E0  1E02               	comf	___flge@ff1+1,f,c
  4594  0067E2  B0D8               	btfsc	status,0,c
  4595  0067E4  2A02               	incf	___flge@ff1+1,f,c
  4596  0067E6  1E03               	comf	___flge@ff1+2,f,c
  4597  0067E8  B0D8               	btfsc	status,0,c
  4598  0067EA  2A03               	incf	___flge@ff1+2,f,c
  4599  0067EC  0E80               	movlw	128
  4600  0067EE  5604               	subfwb	___flge@ff1+3,f,c
  4601  0067F0                     l2689:
  4602  0067F0  AE08               	btfss	___flge@ff2+3,7,c
  4603  0067F2  D009               	goto	l706
  4604  0067F4  6C05               	negf	___flge@ff2,c
  4605  0067F6  1E06               	comf	___flge@ff2+1,f,c
  4606  0067F8  B0D8               	btfsc	status,0,c
  4607  0067FA  2A06               	incf	___flge@ff2+1,f,c
  4608  0067FC  1E07               	comf	___flge@ff2+2,f,c
  4609  0067FE  B0D8               	btfsc	status,0,c
  4610  006800  2A07               	incf	___flge@ff2+2,f,c
  4611  006802  0E80               	movlw	128
  4612  006804  5608               	subfwb	___flge@ff2+3,f,c
  4613  006806                     l706:
  4614  006806  0E80               	movlw	128
  4615  006808  1A04               	xorwf	___flge@ff1+3,f,c
  4616  00680A  1A08               	xorwf	___flge@ff2+3,f,c
  4617  00680C  5005               	movf	___flge@ff2,w,c
  4618  00680E  5C01               	subwf	___flge@ff1,w,c
  4619  006810  5006               	movf	___flge@ff2+1,w,c
  4620  006812  5802               	subwfb	___flge@ff1+1,w,c
  4621  006814  5007               	movf	___flge@ff2+2,w,c
  4622  006816  5803               	subwfb	___flge@ff1+2,w,c
  4623  006818  5008               	movf	___flge@ff2+3,w,c
  4624  00681A  5804               	subwfb	___flge@ff1+3,w,c
  4625  00681C  E202               	bc	l2695
  4626  00681E  90D8               	bcf	status,0,c
  4627  006820  D001               	goto	l707
  4628  006822                     l2695:
  4629  006822  80D8               	bsf	status,0,c
  4630  006824                     l707:
  4631  006824  0012               	return		;funcret
  4632  006826                     __end_of___flge:
  4633                           	opt stack 0
  4634                           tblptru	equ	0xFF8
  4635                           tblptrh	equ	0xFF7
  4636                           tblptrl	equ	0xFF6
  4637                           tablat	equ	0xFF5
  4638                           prodh	equ	0xFF4
  4639                           prodl	equ	0xFF3
  4640                           indf0	equ	0xFEF
  4641                           fsr0h	equ	0xFEA
  4642                           fsr0l	equ	0xFE9
  4643                           wreg	equ	0xFE8
  4644                           indf2	equ	0xFDF
  4645                           postinc2	equ	0xFDE
  4646                           postdec2	equ	0xFDD
  4647                           fsr2h	equ	0xFDA
  4648                           fsr2l	equ	0xFD9
  4649                           status	equ	0xFD8
  4650                           
  4651 ;; *************** function _putrsserial *****************
  4652 ;; Defined at:
  4653 ;;		line 11 in file "serial.c"
  4654 ;; Parameters:    Size  Location     Type
  4655 ;;  data            2    1[COMRAM] PTR const unsigned char 
  4656 ;;		 -> main@aux(20), STR_2(14), STR_1(25), 
  4657 ;; Auto vars:     Size  Location     Type
  4658 ;;		None
  4659 ;; Return value:  Size  Location     Type
  4660 ;;		None               void
  4661 ;; Registers used:
  4662 ;;		wreg, fsr0l, fsr0h, status,2, status,0, tblptrl, tblptrh, tblptru, cstack
  4663 ;; Tracked objects:
  4664 ;;		On entry : 0/0
  4665 ;;		On exit  : 0/0
  4666 ;;		Unchanged: 0/0
  4667 ;; Data sizes:     COMRAM   BANK0   BANK1   BANK2   BANK3   BANK4   BANK5
  4668 ;;      Params:         2       0       0       0       0       0       0
  4669 ;;      Locals:         0       0       0       0       0       0       0
  4670 ;;      Temps:          2       0       0       0       0       0       0
  4671 ;;      Totals:         4       0       0       0       0       0       0
  4672 ;;Total ram usage:        4 bytes
  4673 ;; Hardware stack levels used:    1
  4674 ;; Hardware stack levels required when called:    1
  4675 ;; This function calls:
  4676 ;;		_writeserial
  4677 ;; This function is called by:
  4678 ;;		_main
  4679 ;; This function uses a non-reentrant model
  4680 ;;
  4681                           
  4682                           	psect	text19
  4683  006826                     __ptext19:
  4684                           	opt stack 0
  4685  006826                     _putrsserial:
  4686                           	opt stack 29
  4687  006826                     l180:
  4688  006826  A2AC               	btfss	4012,1,c	;volatile
  4689  006828  D7FE               	goto	l180
  4690                           
  4691                           ;serial.c: 16: writeserial(*data);
  4692  00682A  C002  FFF6         	movff	putrsserial@data,tblptrl
  4693  00682E  C003  FFF7         	movff	putrsserial@data+1,tblptrh
  4694  006832  6AF8               	clrf	tblptru,c
  4695  006834  0E05               	movlw	(high __ramtop+-1)
  4696  006836  64F7               	cpfsgt	tblptrh,c
  4697  006838  D003               	bra	u2807
  4698  00683A  0008               	tblrd		*
  4699  00683C  50F5               	movf	tablat,w,c
  4700  00683E  D005               	bra	u2800
  4701  006840                     u2807:
  4702  006840  CFF6 FFE9          	movff	tblptrl,fsr0l
  4703  006844  CFF7 FFEA          	movff	tblptrh,fsr0h
  4704  006848  50EF               	movf	indf0,w,c
  4705  00684A                     u2800:
  4706  00684A  EC71  F032         	call	_writeserial
  4707                           
  4708                           ;serial.c: 17: } while( *data++ );
  4709  00684E  5002               	movf	putrsserial@data,w,c
  4710  006850  6E04               	movwf	??_putrsserial& (0+255),c
  4711  006852  5003               	movf	putrsserial@data+1,w,c
  4712  006854  6E05               	movwf	(??_putrsserial+1)& (0+255),c
  4713  006856  4A02               	infsnz	putrsserial@data,f,c
  4714  006858  2A03               	incf	putrsserial@data+1,f,c
  4715  00685A  C004  FFF6         	movff	??_putrsserial,tblptrl
  4716  00685E  C005  FFF7         	movff	??_putrsserial+1,tblptrh
  4717  006862  6AF8               	clrf	tblptru,c
  4718  006864  0E05               	movlw	(high __ramtop+-1)
  4719  006866  64F7               	cpfsgt	tblptrh,c
  4720  006868  D003               	bra	u2817
  4721  00686A  0008               	tblrd		*
  4722  00686C  50F5               	movf	tablat,w,c
  4723  00686E  D005               	bra	u2810
  4724  006870                     u2817:
  4725  006870  CFF6 FFE9          	movff	tblptrl,fsr0l
  4726  006874  CFF7 FFEA          	movff	tblptrh,fsr0h
  4727  006878  50EF               	movf	indf0,w,c
  4728  00687A                     u2810:
  4729  00687A  0900               	iorlw	0
  4730  00687C  B4D8               	btfsc	status,2,c
  4731  00687E  0012               	return		;funcret
  4732  006880  D7D2               	goto	l180
  4733  006882                     __end_of_putrsserial:
  4734                           	opt stack 0
  4735                           tblptru	equ	0xFF8
  4736                           tblptrh	equ	0xFF7
  4737                           tblptrl	equ	0xFF6
  4738                           tablat	equ	0xFF5
  4739                           prodh	equ	0xFF4
  4740                           prodl	equ	0xFF3
  4741                           indf0	equ	0xFEF
  4742                           fsr0h	equ	0xFEA
  4743                           fsr0l	equ	0xFE9
  4744                           wreg	equ	0xFE8
  4745                           indf2	equ	0xFDF
  4746                           postinc2	equ	0xFDE
  4747                           postdec2	equ	0xFDD
  4748                           fsr2h	equ	0xFDA
  4749                           fsr2l	equ	0xFD9
  4750                           status	equ	0xFD8
  4751                           
  4752 ;; *************** function _writeserial *****************
  4753 ;; Defined at:
  4754 ;;		line 29 in file "serial.c"
  4755 ;; Parameters:    Size  Location     Type
  4756 ;;  data            1    wreg     unsigned char 
  4757 ;; Auto vars:     Size  Location     Type
  4758 ;;  data            1    0[COMRAM] unsigned char 
  4759 ;; Return value:  Size  Location     Type
  4760 ;;		None               void
  4761 ;; Registers used:
  4762 ;;		wreg
  4763 ;; Tracked objects:
  4764 ;;		On entry : 0/0
  4765 ;;		On exit  : 0/0
  4766 ;;		Unchanged: 0/0
  4767 ;; Data sizes:     COMRAM   BANK0   BANK1   BANK2   BANK3   BANK4   BANK5
  4768 ;;      Params:         0       0       0       0       0       0       0
  4769 ;;      Locals:         1       0       0       0       0       0       0
  4770 ;;      Temps:          0       0       0       0       0       0       0
  4771 ;;      Totals:         1       0       0       0       0       0       0
  4772 ;;Total ram usage:        1 bytes
  4773 ;; Hardware stack levels used:    1
  4774 ;; This function calls:
  4775 ;;		Nothing
  4776 ;; This function is called by:
  4777 ;;		_putrsserial
  4778 ;; This function uses a non-reentrant model
  4779 ;;
  4780                           
  4781                           	psect	text20
  4782  0064E2                     __ptext20:
  4783                           	opt stack 0
  4784  0064E2                     _writeserial:
  4785                           	opt stack 29
  4786                           
  4787                           ;incstack = 0
  4788                           ;writeserial@data stored from wreg
  4789  0064E2  6E01               	movwf	writeserial@data,c
  4790                           
  4791                           ;serial.c: 31: TXREG = data;
  4792  0064E4  C001  FFAD         	movff	writeserial@data,4013	;volatile
  4793  0064E8  0012               	return		;funcret
  4794  0064EA                     __end_of_writeserial:
  4795                           	opt stack 0
  4796                           tblptru	equ	0xFF8
  4797                           tblptrh	equ	0xFF7
  4798                           tblptrl	equ	0xFF6
  4799                           tablat	equ	0xFF5
  4800                           prodh	equ	0xFF4
  4801                           prodl	equ	0xFF3
  4802                           indf0	equ	0xFEF
  4803                           fsr0h	equ	0xFEA
  4804                           fsr0l	equ	0xFE9
  4805                           wreg	equ	0xFE8
  4806                           indf2	equ	0xFDF
  4807                           postinc2	equ	0xFDE
  4808                           postdec2	equ	0xFDD
  4809                           fsr2h	equ	0xFDA
  4810                           fsr2l	equ	0xFD9
  4811                           status	equ	0xFD8
  4812                           
  4813 ;; *************** function _I2C_Init *****************
  4814 ;; Defined at:
  4815 ;;		line 11 in file "my_i2c.c"
  4816 ;; Parameters:    Size  Location     Type
  4817 ;;  clock_output    1    wreg     unsigned char 
  4818 ;; Auto vars:     Size  Location     Type
  4819 ;;  clock_output    1    0[COMRAM] unsigned char 
  4820 ;; Return value:  Size  Location     Type
  4821 ;;		None               void
  4822 ;; Registers used:
  4823 ;;		wreg, status,2, status,0
  4824 ;; Tracked objects:
  4825 ;;		On entry : 0/0
  4826 ;;		On exit  : 0/0
  4827 ;;		Unchanged: 0/0
  4828 ;; Data sizes:     COMRAM   BANK0   BANK1   BANK2   BANK3   BANK4   BANK5
  4829 ;;      Params:         0       0       0       0       0       0       0
  4830 ;;      Locals:         1       0       0       0       0       0       0
  4831 ;;      Temps:          0       0       0       0       0       0       0
  4832 ;;      Totals:         1       0       0       0       0       0       0
  4833 ;;Total ram usage:        1 bytes
  4834 ;; Hardware stack levels used:    1
  4835 ;; This function calls:
  4836 ;;		Nothing
  4837 ;; This function is called by:
  4838 ;;		_main
  4839 ;; This function uses a non-reentrant model
  4840 ;;
  4841                           
  4842                           	psect	text21
  4843  006530                     __ptext21:
  4844                           	opt stack 0
  4845  006530                     _I2C_Init:
  4846                           	opt stack 30
  4847                           
  4848                           ;incstack = 0
  4849                           ;I2C_Init@clock_output stored from wreg
  4850  006530  6E01               	movwf	I2C_Init@clock_output,c
  4851                           
  4852                           ;my_i2c.c: 13: SSPSTAT &= 0x3F;
  4853  006532  0E3F               	movlw	63
  4854  006534  16C7               	andwf	4039,f,c	;volatile
  4855                           
  4856                           ;my_i2c.c: 14: SSPCON1 = 0x00;
  4857  006536  6AC6               	clrf	4038,c	;volatile
  4858                           
  4859                           ;my_i2c.c: 15: SSPCON2 = 0x00;
  4860  006538  6AC5               	clrf	4037,c	;volatile
  4861                           
  4862                           ;my_i2c.c: 16: SSPCON1 |= 0b00001000;
  4863  00653A  86C6               	bsf	4038,3,c	;volatile
  4864                           
  4865                           ;my_i2c.c: 17: SSPSTAT |= 0b10000000;
  4866  00653C  8EC7               	bsf	4039,7,c	;volatile
  4867                           
  4868                           ;my_i2c.c: 19: TRISCbits.TRISC3 = 1;
  4869  00653E  8694               	bsf	3988,3,c	;volatile
  4870                           
  4871                           ;my_i2c.c: 20: TRISCbits.TRISC4 = 1;
  4872  006540  8894               	bsf	3988,4,c	;volatile
  4873                           
  4874                           ;my_i2c.c: 22: SSPCON1 |= 0b00100000;
  4875  006542  8AC6               	bsf	4038,5,c	;volatile
  4876                           
  4877                           ;my_i2c.c: 24: SSPADD = clock_output;
  4878  006544  C001  FFC8         	movff	I2C_Init@clock_output,4040	;volatile
  4879  006548  0012               	return		;funcret
  4880  00654A                     __end_of_I2C_Init:
  4881                           	opt stack 0
  4882                           tblptru	equ	0xFF8
  4883                           tblptrh	equ	0xFF7
  4884                           tblptrl	equ	0xFF6
  4885                           tablat	equ	0xFF5
  4886                           prodh	equ	0xFF4
  4887                           prodl	equ	0xFF3
  4888                           indf0	equ	0xFEF
  4889                           fsr0h	equ	0xFEA
  4890                           fsr0l	equ	0xFE9
  4891                           wreg	equ	0xFE8
  4892                           indf2	equ	0xFDF
  4893                           postinc2	equ	0xFDE
  4894                           postdec2	equ	0xFDD
  4895                           fsr2h	equ	0xFDA
  4896                           fsr2l	equ	0xFD9
  4897                           status	equ	0xFD8
  4898                           
  4899 ;; *************** function _I2C_Close *****************
  4900 ;; Defined at:
  4901 ;;		line 58 in file "my_i2c.c"
  4902 ;; Parameters:    Size  Location     Type
  4903 ;;		None
  4904 ;; Auto vars:     Size  Location     Type
  4905 ;;		None
  4906 ;; Return value:  Size  Location     Type
  4907 ;;		None               void
  4908 ;; Registers used:
  4909 ;;		status,2, status,0
  4910 ;; Tracked objects:
  4911 ;;		On entry : 0/0
  4912 ;;		On exit  : 0/0
  4913 ;;		Unchanged: 0/0
  4914 ;; Data sizes:     COMRAM   BANK0   BANK1   BANK2   BANK3   BANK4   BANK5
  4915 ;;      Params:         0       0       0       0       0       0       0
  4916 ;;      Locals:         0       0       0       0       0       0       0
  4917 ;;      Temps:          0       0       0       0       0       0       0
  4918 ;;      Totals:         0       0       0       0       0       0       0
  4919 ;;Total ram usage:        0 bytes
  4920 ;; Hardware stack levels used:    1
  4921 ;; This function calls:
  4922 ;;		Nothing
  4923 ;; This function is called by:
  4924 ;;		_main
  4925 ;; This function uses a non-reentrant model
  4926 ;;
  4927                           
  4928                           	psect	text22
  4929  0064DE                     __ptext22:
  4930                           	opt stack 0
  4931  0064DE                     _I2C_Close:
  4932                           	opt stack 30
  4933                           
  4934                           ;my_i2c.c: 60: SSPCON1 &= 0xDF;
  4935                           
  4936                           ;incstack = 0
  4937  0064DE  9AC6               	bcf	4038,5,c	;volatile
  4938  0064E0  0012               	return		;funcret
  4939  0064E2                     __end_of_I2C_Close:
  4940                           	opt stack 0
  4941                           tblptru	equ	0xFF8
  4942                           tblptrh	equ	0xFF7
  4943                           tblptrl	equ	0xFF6
  4944                           tablat	equ	0xFF5
  4945                           prodh	equ	0xFF4
  4946                           prodl	equ	0xFF3
  4947                           indf0	equ	0xFEF
  4948                           fsr0h	equ	0xFEA
  4949                           fsr0l	equ	0xFE9
  4950                           wreg	equ	0xFE8
  4951                           indf2	equ	0xFDF
  4952                           postinc2	equ	0xFDE
  4953                           postdec2	equ	0xFDD
  4954                           fsr2h	equ	0xFDA
  4955                           fsr2l	equ	0xFD9
  4956                           status	equ	0xFD8
  4957                           
  4958 ;; *************** function _ES15007_ReadTemp *****************
  4959 ;; Defined at:
  4960 ;;		line 92 in file "ES15007.c"
  4961 ;; Parameters:    Size  Location     Type
  4962 ;;		None
  4963 ;; Auto vars:     Size  Location     Type
  4964 ;;  temp            4   77[COMRAM] float 
  4965 ;;  qzd_temp_hi     2   83[COMRAM] struct .
  4966 ;;  qzd_temp_lo     2   81[COMRAM] struct .
  4967 ;; Return value:  Size  Location     Type
  4968 ;;                  4   73[COMRAM] float 
  4969 ;; Registers used:
  4970 ;;		wreg, status,2, status,0, cstack
  4971 ;; Tracked objects:
  4972 ;;		On entry : 0/0
  4973 ;;		On exit  : 0/0
  4974 ;;		Unchanged: 0/0
  4975 ;; Data sizes:     COMRAM   BANK0   BANK1   BANK2   BANK3   BANK4   BANK5
  4976 ;;      Params:         4       0       0       0       0       0       0
  4977 ;;      Locals:         8       0       0       0       0       0       0
  4978 ;;      Temps:          0       0       0       0       0       0       0
  4979 ;;      Totals:        12       0       0       0       0       0       0
  4980 ;;Total ram usage:       12 bytes
  4981 ;; Hardware stack levels used:    1
  4982 ;; Hardware stack levels required when called:    2
  4983 ;; This function calls:
  4984 ;;		_I2C_ReadByte
  4985 ;;		_I2C_RepeatedStart
  4986 ;;		_I2C_Start
  4987 ;;		_I2C_Stop
  4988 ;;		_I2C_WriteByte
  4989 ;;		___fladd
  4990 ;;		___fldiv
  4991 ;;		___flmul
  4992 ;;		___lwtofl
  4993 ;; This function is called by:
  4994 ;;		_main
  4995 ;; This function uses a non-reentrant model
  4996 ;;
  4997                           
  4998                           	psect	text23
  4999  006F5A                     __ptext23:
  5000                           	opt stack 0
  5001  006F5A                     _ES15007_ReadTemp:
  5002                           	opt stack 28
  5003                           
  5004                           ;ES15007.c: 96: union
  5005                           ;ES15007.c: 97: {
  5006                           ;ES15007.c: 98: uint16_t temperature_16;
  5007                           ;ES15007.c: 99: uint8_t temperature_databyte[1];
  5008                           ;ES15007.c: 100: }qzd_temp_lo;
  5009                           ;ES15007.c: 101: union
  5010                           ;ES15007.c: 102: {
  5011                           ;ES15007.c: 103: uint16_t temperature_16;
  5012                           ;ES15007.c: 104: uint8_t temperature_databyte[1];
  5013                           ;ES15007.c: 105: }qzd_temp_hi;
  5014                           ;ES15007.c: 107: I2C_Start();
  5015                           
  5016                           ;incstack = 0
  5017  006F5A  EC80  F032         	call	_I2C_Start	;wreg free
  5018                           
  5019                           ;ES15007.c: 108: I2C_WriteByte(0x20);
  5020  006F5E  0E20               	movlw	32
  5021  006F60  ECFC  F032         	call	_I2C_WriteByte
  5022                           
  5023                           ;ES15007.c: 109: I2C_WriteByte(0x18);
  5024  006F64  0E18               	movlw	24
  5025  006F66  ECFC  F032         	call	_I2C_WriteByte
  5026                           
  5027                           ;ES15007.c: 110: I2C_RepeatedStart();
  5028  006F6A  EC7A  F032         	call	_I2C_RepeatedStart	;wreg free
  5029                           
  5030                           ;ES15007.c: 111: I2C_WriteByte(0x20 + 1);
  5031  006F6E  0E21               	movlw	33
  5032  006F70  ECFC  F032         	call	_I2C_WriteByte
  5033                           
  5034                           ;ES15007.c: 112: qzd_temp_lo.temperature_databyte[0] = I2C_ReadByte(1);
  5035  006F74  0E01               	movlw	1
  5036  006F76  EC88  F033         	call	_I2C_ReadByte
  5037  006F7A  6E52               	movwf	ES15007_ReadTemp@qzd_temp_lo,c
  5038                           
  5039                           ;ES15007.c: 113: qzd_temp_lo.temperature_databyte[1] = I2C_ReadByte(0);
  5040  006F7C  0E00               	movlw	0
  5041  006F7E  EC88  F033         	call	_I2C_ReadByte
  5042  006F82  6E53               	movwf	ES15007_ReadTemp@qzd_temp_lo+1,c
  5043                           
  5044                           ;ES15007.c: 114: I2C_Stop();
  5045  006F84  EC86  F032         	call	_I2C_Stop	;wreg free
  5046                           
  5047                           ;ES15007.c: 116: I2C_Start();
  5048  006F88  EC80  F032         	call	_I2C_Start	;wreg free
  5049                           
  5050                           ;ES15007.c: 117: I2C_WriteByte(0x20);
  5051  006F8C  0E20               	movlw	32
  5052  006F8E  ECFC  F032         	call	_I2C_WriteByte
  5053                           
  5054                           ;ES15007.c: 118: I2C_WriteByte(0x19);
  5055  006F92  0E19               	movlw	25
  5056  006F94  ECFC  F032         	call	_I2C_WriteByte
  5057                           
  5058                           ;ES15007.c: 119: I2C_RepeatedStart();
  5059  006F98  EC7A  F032         	call	_I2C_RepeatedStart	;wreg free
  5060                           
  5061                           ;ES15007.c: 120: I2C_WriteByte(0x20 + 1);
  5062  006F9C  0E21               	movlw	33
  5063  006F9E  ECFC  F032         	call	_I2C_WriteByte
  5064                           
  5065                           ;ES15007.c: 121: qzd_temp_hi.temperature_databyte[0] = I2C_ReadByte(1);
  5066  006FA2  0E01               	movlw	1
  5067  006FA4  EC88  F033         	call	_I2C_ReadByte
  5068  006FA8  6E54               	movwf	ES15007_ReadTemp@qzd_temp_hi,c
  5069                           
  5070                           ;ES15007.c: 122: qzd_temp_hi.temperature_databyte[1] = I2C_ReadByte(0);
  5071  006FAA  0E00               	movlw	0
  5072  006FAC  EC88  F033         	call	_I2C_ReadByte
  5073  006FB0  6E55               	movwf	ES15007_ReadTemp@qzd_temp_hi+1,c
  5074                           
  5075                           ;ES15007.c: 123: I2C_Stop();
  5076  006FB2  EC86  F032         	call	_I2C_Stop	;wreg free
  5077                           
  5078                           ;ES15007.c: 126: temp = (float)(qzd_temp_lo.temperature_16 + (65536.0 * qzd_temp_hi.temp
      +                          erature_16))/(8388608.0);
  5079  006FB6  6A13               	clrf	___flmul@f2,c
  5080  006FB8  6A14               	clrf	___flmul@f2+1,c
  5081  006FBA  0E80               	movlw	128
  5082  006FBC  6E15               	movwf	___flmul@f2+2,c
  5083  006FBE  0E47               	movlw	71
  5084  006FC0  6E16               	movwf	___flmul@f2+3,c
  5085  006FC2  C054  F00B         	movff	ES15007_ReadTemp@qzd_temp_hi,___lwtofl@c
  5086  006FC6  C055  F00C         	movff	ES15007_ReadTemp@qzd_temp_hi+1,___lwtofl@c+1
  5087  006FCA  EC26  F033         	call	___lwtofl	;wreg free
  5088  006FCE  C00B  F00F         	movff	?___lwtofl,___flmul@f1
  5089  006FD2  C00C  F010         	movff	?___lwtofl+1,___flmul@f1+1
  5090  006FD6  C00D  F011         	movff	?___lwtofl+2,___flmul@f1+2
  5091  006FDA  C00E  F012         	movff	?___lwtofl+3,___flmul@f1+3
  5092  006FDE  ECBE  F035         	call	___flmul	;wreg free
  5093  006FE2  C00F  F033         	movff	?___flmul,___fladd@f2
  5094  006FE6  C010  F034         	movff	?___flmul+1,___fladd@f2+1
  5095  006FEA  C011  F035         	movff	?___flmul+2,___fladd@f2+2
  5096  006FEE  C012  F036         	movff	?___flmul+3,___fladd@f2+3
  5097  006FF2  C052  F00B         	movff	ES15007_ReadTemp@qzd_temp_lo,___lwtofl@c
  5098  006FF6  C053  F00C         	movff	ES15007_ReadTemp@qzd_temp_lo+1,___lwtofl@c+1
  5099  006FFA  EC26  F033         	call	___lwtofl	;wreg free
  5100  006FFE  C00B  F02F         	movff	?___lwtofl,___fladd@f1
  5101  007002  C00C  F030         	movff	?___lwtofl+1,___fladd@f1+1
  5102  007006  C00D  F031         	movff	?___lwtofl+2,___fladd@f1+2
  5103  00700A  C00E  F032         	movff	?___lwtofl+3,___fladd@f1+3
  5104  00700E  ECA9  F038         	call	___fladd	;wreg free
  5105  007012  C02F  F03B         	movff	?___fladd,___fldiv@f1
  5106  007016  C030  F03C         	movff	?___fladd+1,___fldiv@f1+1
  5107  00701A  C031  F03D         	movff	?___fladd+2,___fldiv@f1+2
  5108  00701E  C032  F03E         	movff	?___fladd+3,___fldiv@f1+3
  5109  007022  0E00               	movlw	0
  5110  007024  6E3F               	movwf	___fldiv@f2,c
  5111  007026  6E40               	movwf	___fldiv@f2+1,c
  5112  007028  6E41               	movwf	___fldiv@f2+2,c
  5113  00702A  0E4B               	movlw	75
  5114  00702C  6E42               	movwf	___fldiv@f2+3,c
  5115  00702E  EC6B  F035         	call	___fldiv	;wreg free
  5116  007032  C03B  F04E         	movff	?___fldiv,ES15007_ReadTemp@temp
  5117  007036  C03C  F04F         	movff	?___fldiv+1,ES15007_ReadTemp@temp+1
  5118  00703A  C03D  F050         	movff	?___fldiv+2,ES15007_ReadTemp@temp+2
  5119  00703E  C03E  F051         	movff	?___fldiv+3,ES15007_ReadTemp@temp+3
  5120                           
  5121                           ;ES15007.c: 128: return temp;
  5122  007042  C04E  F04A         	movff	ES15007_ReadTemp@temp,?_ES15007_ReadTemp
  5123  007046  C04F  F04B         	movff	ES15007_ReadTemp@temp+1,?_ES15007_ReadTemp+1
  5124  00704A  C050  F04C         	movff	ES15007_ReadTemp@temp+2,?_ES15007_ReadTemp+2
  5125  00704E  C051  F04D         	movff	ES15007_ReadTemp@temp+3,?_ES15007_ReadTemp+3
  5126  007052  0012               	return		;funcret
  5127  007054                     __end_of_ES15007_ReadTemp:
  5128                           	opt stack 0
  5129                           tblptru	equ	0xFF8
  5130                           tblptrh	equ	0xFF7
  5131                           tblptrl	equ	0xFF6
  5132                           tablat	equ	0xFF5
  5133                           prodh	equ	0xFF4
  5134                           prodl	equ	0xFF3
  5135                           indf0	equ	0xFEF
  5136                           fsr0h	equ	0xFEA
  5137                           fsr0l	equ	0xFE9
  5138                           wreg	equ	0xFE8
  5139                           indf2	equ	0xFDF
  5140                           postinc2	equ	0xFDE
  5141                           postdec2	equ	0xFDD
  5142                           fsr2h	equ	0xFDA
  5143                           fsr2l	equ	0xFD9
  5144                           status	equ	0xFD8
  5145                           
  5146 ;; *************** function ___lwtofl *****************
  5147 ;; Defined at:
  5148 ;;		line 28 in file "C:\Program Files (x86)\Microchip\xc8\v1.34\sources\common\lwtofl.c"
  5149 ;; Parameters:    Size  Location     Type
  5150 ;;  c               2   10[COMRAM] unsigned int 
  5151 ;; Auto vars:     Size  Location     Type
  5152 ;;		None
  5153 ;; Return value:  Size  Location     Type
  5154 ;;                  4   10[COMRAM] unsigned int 
  5155 ;; Registers used:
  5156 ;;		wreg, status,2, status,0, cstack
  5157 ;; Tracked objects:
  5158 ;;		On entry : 0/0
  5159 ;;		On exit  : 0/0
  5160 ;;		Unchanged: 0/0
  5161 ;; Data sizes:     COMRAM   BANK0   BANK1   BANK2   BANK3   BANK4   BANK5
  5162 ;;      Params:         4       0       0       0       0       0       0
  5163 ;;      Locals:         0       0       0       0       0       0       0
  5164 ;;      Temps:          0       0       0       0       0       0       0
  5165 ;;      Totals:         4       0       0       0       0       0       0
  5166 ;;Total ram usage:        4 bytes
  5167 ;; Hardware stack levels used:    1
  5168 ;; Hardware stack levels required when called:    1
  5169 ;; This function calls:
  5170 ;;		___flpack
  5171 ;; This function is called by:
  5172 ;;		_ES15007_ReadTemp
  5173 ;; This function uses a non-reentrant model
  5174 ;;
  5175                           
  5176                           	psect	text24
  5177  00664C                     __ptext24:
  5178                           	opt stack 0
  5179  00664C                     ___lwtofl:
  5180                           	opt stack 28
  5181                           
  5182                           ;incstack = 0
  5183  00664C  C00B  F001         	movff	___lwtofl@c,___flpack@arg
  5184  006650  C00C  F002         	movff	___lwtofl@c+1,___flpack@arg+1
  5185  006654  6A03               	clrf	___flpack@arg+2,c
  5186  006656  6A04               	clrf	___flpack@arg+3,c
  5187  006658  0E96               	movlw	150
  5188  00665A  6E05               	movwf	___flpack@exp,c
  5189  00665C  0E00               	movlw	0
  5190  00665E  6E06               	movwf	___flpack@sign,c
  5191  006660  EC7A  F036         	call	___flpack	;wreg free
  5192  006664  C001  F00B         	movff	?___flpack,?___lwtofl
  5193  006668  C002  F00C         	movff	?___flpack+1,?___lwtofl+1
  5194  00666C  C003  F00D         	movff	?___flpack+2,?___lwtofl+2
  5195  006670  C004  F00E         	movff	?___flpack+3,?___lwtofl+3
  5196  006674  0012               	return		;funcret
  5197  006676                     __end_of___lwtofl:
  5198                           	opt stack 0
  5199                           tblptru	equ	0xFF8
  5200                           tblptrh	equ	0xFF7
  5201                           tblptrl	equ	0xFF6
  5202                           tablat	equ	0xFF5
  5203                           prodh	equ	0xFF4
  5204                           prodl	equ	0xFF3
  5205                           indf0	equ	0xFEF
  5206                           fsr0h	equ	0xFEA
  5207                           fsr0l	equ	0xFE9
  5208                           wreg	equ	0xFE8
  5209                           indf2	equ	0xFDF
  5210                           postinc2	equ	0xFDE
  5211                           postdec2	equ	0xFDD
  5212                           fsr2h	equ	0xFDA
  5213                           fsr2l	equ	0xFD9
  5214                           status	equ	0xFD8
  5215                           
  5216 ;; *************** function ___flmul *****************
  5217 ;; Defined at:
  5218 ;;		line 62 in file "C:\Program Files (x86)\Microchip\xc8\v1.34\sources\common\flmul.c"
  5219 ;; Parameters:    Size  Location     Type
  5220 ;;  f1              4   14[COMRAM] unsigned int 
  5221 ;;  f2              4   18[COMRAM] unsigned int 
  5222 ;; Auto vars:     Size  Location     Type
  5223 ;;  f3_as_produc    4   23[COMRAM] unsigned long 
  5224 ;;  sign            1   28[COMRAM] unsigned char 
  5225 ;;  cntr            1   27[COMRAM] unsigned char 
  5226 ;;  exp             1   22[COMRAM] unsigned char 
  5227 ;; Return value:  Size  Location     Type
  5228 ;;                  4   14[COMRAM] unsigned char 
  5229 ;; Registers used:
  5230 ;;		wreg, status,2, status,0, cstack
  5231 ;; Tracked objects:
  5232 ;;		On entry : 0/0
  5233 ;;		On exit  : 0/0
  5234 ;;		Unchanged: 0/0
  5235 ;; Data sizes:     COMRAM   BANK0   BANK1   BANK2   BANK3   BANK4   BANK5
  5236 ;;      Params:         8       0       0       0       0       0       0
  5237 ;;      Locals:         7       0       0       0       0       0       0
  5238 ;;      Temps:          0       0       0       0       0       0       0
  5239 ;;      Totals:        15       0       0       0       0       0       0
  5240 ;;Total ram usage:       15 bytes
  5241 ;; Hardware stack levels used:    1
  5242 ;; Hardware stack levels required when called:    1
  5243 ;; This function calls:
  5244 ;;		___flpack
  5245 ;; This function is called by:
  5246 ;;		_ES15007_ReadTemp
  5247 ;;		_fround
  5248 ;;		_scale
  5249 ;;		_sprintf
  5250 ;; This function uses a non-reentrant model
  5251 ;;
  5252                           
  5253                           	psect	text25
  5254  006B7C                     __ptext25:
  5255                           	opt stack 0
  5256  006B7C                     ___flmul:
  5257                           	opt stack 27
  5258                           
  5259                           ;incstack = 0
  5260  006B7C  3411               	rlcf	___flmul@f1+2,w,c
  5261  006B7E  3412               	rlcf	___flmul@f1+3,w,c
  5262  006B80  6E17               	movwf	___flmul@exp,c
  5263  006B82  5017               	movf	___flmul@exp,w,c
  5264  006B84  E005               	bz	l2235
  5265  006B86  3415               	rlcf	___flmul@f2+2,w,c
  5266  006B88  3416               	rlcf	___flmul@f2+3,w,c
  5267  006B8A  6E1D               	movwf	___flmul@sign,c
  5268  006B8C  501D               	movf	___flmul@sign,w,c
  5269  006B8E  E105               	bnz	l2237
  5270  006B90                     l2235:
  5271  006B90  6A0F               	clrf	?___flmul,c
  5272  006B92  6A10               	clrf	?___flmul+1,c
  5273  006B94  6A11               	clrf	?___flmul+2,c
  5274  006B96  6A12               	clrf	?___flmul+3,c
  5275  006B98  D03D               	goto	l713
  5276  006B9A                     l2237:
  5277  006B9A  501D               	movf	___flmul@sign,w,c
  5278  006B9C  0F7B               	addlw	123
  5279  006B9E  2617               	addwf	___flmul@exp,f,c
  5280  006BA0  C012  F01D         	movff	___flmul@f1+3,___flmul@sign
  5281  006BA4  5016               	movf	___flmul@f2+3,w,c
  5282  006BA6  1A1D               	xorwf	___flmul@sign,f,c
  5283  006BA8  0E80               	movlw	128
  5284  006BAA  161D               	andwf	___flmul@sign,f,c
  5285  006BAC  8E11               	bsf	___flmul@f1+2,7,c
  5286  006BAE  8E15               	bsf	___flmul@f2+2,7,c
  5287  006BB0  0E00               	movlw	0
  5288  006BB2  1616               	andwf	___flmul@f2+3,f,c
  5289  006BB4  6A18               	clrf	___flmul@f3_as_product,c
  5290  006BB6  6A19               	clrf	___flmul@f3_as_product+1,c
  5291  006BB8  6A1A               	clrf	___flmul@f3_as_product+2,c
  5292  006BBA  6A1B               	clrf	___flmul@f3_as_product+3,c
  5293  006BBC  0E07               	movlw	7
  5294  006BBE  6E1C               	movwf	___flmul@cntr,c
  5295  006BC0                     l2249:
  5296  006BC0  B00F               	btfsc	___flmul@f1,0,c
  5297  006BC2  D829               	call	PL46	;call to abstracted procedure
  5298  006BC4  D831               	call	PL54	;call to abstracted procedure
  5299  006BC6  3613               	rlcf	___flmul@f2,f,c
  5300  006BC8  3614               	rlcf	___flmul@f2+1,f,c
  5301  006BCA  3615               	rlcf	___flmul@f2+2,f,c
  5302  006BCC  3616               	rlcf	___flmul@f2+3,f,c
  5303  006BCE  2E1C               	decfsz	___flmul@cntr,f,c
  5304  006BD0  D7F7               	goto	l2249
  5305  006BD2  0E11               	movlw	17
  5306  006BD4  6E1C               	movwf	___flmul@cntr,c
  5307  006BD6                     l2261:
  5308  006BD6  B00F               	btfsc	___flmul@f1,0,c
  5309  006BD8  D81E               	call	PL46	;call to abstracted procedure
  5310  006BDA  D826               	call	PL54	;call to abstracted procedure
  5311  006BDC  321B               	rrcf	___flmul@f3_as_product+3,f,c
  5312  006BDE  321A               	rrcf	___flmul@f3_as_product+2,f,c
  5313  006BE0  3219               	rrcf	___flmul@f3_as_product+1,f,c
  5314  006BE2  3218               	rrcf	___flmul@f3_as_product,f,c
  5315  006BE4  2E1C               	decfsz	___flmul@cntr,f,c
  5316  006BE6  D7F7               	goto	l2261
  5317  006BE8  C018  F001         	movff	___flmul@f3_as_product,___flpack@arg
  5318  006BEC  C019  F002         	movff	___flmul@f3_as_product+1,___flpack@arg+1
  5319  006BF0  C01A  F003         	movff	___flmul@f3_as_product+2,___flpack@arg+2
  5320  006BF4  C01B  F004         	movff	___flmul@f3_as_product+3,___flpack@arg+3
  5321  006BF8  C017  F005         	movff	___flmul@exp,___flpack@exp
  5322  006BFC  C01D  F006         	movff	___flmul@sign,___flpack@sign
  5323  006C00  EC7A  F036         	call	___flpack	;wreg free
  5324  006C04  C001  F00F         	movff	?___flpack,?___flmul
  5325  006C08  C002  F010         	movff	?___flpack+1,?___flmul+1
  5326  006C0C  C003  F011         	movff	?___flpack+2,?___flmul+2
  5327  006C10  C004  F012         	movff	?___flpack+3,?___flmul+3
  5328  006C14                     l713:
  5329  006C14  0012               	return		;funcret
  5330  006C16                     __end_of___flmul:
  5331                           	opt stack 0
  5332  006C16                     PL46:
  5333                           	opt stack 27
  5334  006C16  5013               	movf	___flmul@f2,w,c
  5335  006C18  2618               	addwf	___flmul@f3_as_product,f,c
  5336  006C1A  5014               	movf	___flmul@f2+1,w,c
  5337  006C1C  2219               	addwfc	___flmul@f3_as_product+1,f,c
  5338  006C1E  5015               	movf	___flmul@f2+2,w,c
  5339  006C20  221A               	addwfc	___flmul@f3_as_product+2,f,c
  5340  006C22  5016               	movf	___flmul@f2+3,w,c
  5341  006C24  221B               	addwfc	___flmul@f3_as_product+3,f,c
  5342  006C26  0012               	return	
  5343  006C28                     __end_ofPL46:
  5344                           	opt stack 0
  5345  006C28                     PL54:
  5346                           	opt stack 27
  5347  006C28  90D8               	bcf	status,0,c
  5348  006C2A  3212               	rrcf	___flmul@f1+3,f,c
  5349  006C2C  3211               	rrcf	___flmul@f1+2,f,c
  5350  006C2E  3210               	rrcf	___flmul@f1+1,f,c
  5351  006C30  320F               	rrcf	___flmul@f1,f,c
  5352  006C32  90D8               	bcf	status,0,c
  5353  006C34  0012               	return	
  5354  006C36                     __end_ofPL54:
  5355                           	opt stack 0
  5356                           tblptru	equ	0xFF8
  5357                           tblptrh	equ	0xFF7
  5358                           tblptrl	equ	0xFF6
  5359                           tablat	equ	0xFF5
  5360                           prodh	equ	0xFF4
  5361                           prodl	equ	0xFF3
  5362                           indf0	equ	0xFEF
  5363                           fsr0h	equ	0xFEA
  5364                           fsr0l	equ	0xFE9
  5365                           wreg	equ	0xFE8
  5366                           indf2	equ	0xFDF
  5367                           postinc2	equ	0xFDE
  5368                           postdec2	equ	0xFDD
  5369                           fsr2h	equ	0xFDA
  5370                           fsr2l	equ	0xFD9
  5371                           status	equ	0xFD8
  5372                           
  5373 ;; *************** function ___fladd *****************
  5374 ;; Defined at:
  5375 ;;		line 88 in file "C:\Program Files (x86)\Microchip\xc8\v1.34\sources\common\fladd.c"
  5376 ;; Parameters:    Size  Location     Type
  5377 ;;  f1              4   46[COMRAM] unsigned char 
  5378 ;;  f2              4   50[COMRAM] unsigned char 
  5379 ;; Auto vars:     Size  Location     Type
  5380 ;;  exp1            1   57[COMRAM] unsigned char 
  5381 ;;  exp2            1   56[COMRAM] unsigned char 
  5382 ;;  sign            1   55[COMRAM] unsigned char 
  5383 ;; Return value:  Size  Location     Type
  5384 ;;                  4   46[COMRAM] unsigned char 
  5385 ;; Registers used:
  5386 ;;		wreg, status,2, status,0, cstack
  5387 ;; Tracked objects:
  5388 ;;		On entry : 0/0
  5389 ;;		On exit  : 0/0
  5390 ;;		Unchanged: 0/0
  5391 ;; Data sizes:     COMRAM   BANK0   BANK1   BANK2   BANK3   BANK4   BANK5
  5392 ;;      Params:         8       0       0       0       0       0       0
  5393 ;;      Locals:         3       0       0       0       0       0       0
  5394 ;;      Temps:          1       0       0       0       0       0       0
  5395 ;;      Totals:        12       0       0       0       0       0       0
  5396 ;;Total ram usage:       12 bytes
  5397 ;; Hardware stack levels used:    1
  5398 ;; Hardware stack levels required when called:    1
  5399 ;; This function calls:
  5400 ;;		___flpack
  5401 ;; This function is called by:
  5402 ;;		_ES15007_ReadTemp
  5403 ;;		_sprintf
  5404 ;;		___flsub
  5405 ;; This function uses a non-reentrant model
  5406 ;;
  5407                           
  5408                           	psect	text26
  5409  007152                     __ptext26:
  5410                           	opt stack 0
  5411  007152                     ___fladd:
  5412                           	opt stack 27
  5413                           
  5414                           ;incstack = 0
  5415  007152  3431               	rlcf	___fladd@f1+2,w,c
  5416  007154  3432               	rlcf	___fladd@f1+3,w,c
  5417  007156  6E3A               	movwf	___fladd@exp1,c
  5418  007158  3435               	rlcf	___fladd@f2+2,w,c
  5419  00715A  3436               	rlcf	___fladd@f2+3,w,c
  5420  00715C  6E39               	movwf	___fladd@exp2,c
  5421  00715E  503A               	movf	___fladd@exp1,w,c
  5422  007160  E009               	bz	l649
  5423  007162  5039               	movf	___fladd@exp2,w,c
  5424  007164  5C3A               	subwf	___fladd@exp1,w,c
  5425  007166  E20F               	bc	l2169
  5426  007168  503A               	movf	___fladd@exp1,w,c
  5427  00716A  5C39               	subwf	___fladd@exp2,w,c
  5428  00716C  6E37               	movwf	??___fladd& (0+255),c
  5429  00716E  0E20               	movlw	32
  5430  007170  6437               	cpfsgt	??___fladd,c
  5431  007172  D009               	goto	l2169
  5432  007174                     l649:
  5433  007174  C033  F02F         	movff	___fladd@f2,?___fladd
  5434  007178  C034  F030         	movff	___fladd@f2+1,?___fladd+1
  5435  00717C  C035  F031         	movff	___fladd@f2+2,?___fladd+2
  5436  007180  C036  F032         	movff	___fladd@f2+3,?___fladd+3
  5437  007184  D088               	goto	l650
  5438  007186                     l2169:
  5439  007186  5039               	movf	___fladd@exp2,w,c
  5440  007188  E009               	bz	l653
  5441  00718A  503A               	movf	___fladd@exp1,w,c
  5442  00718C  5C39               	subwf	___fladd@exp2,w,c
  5443  00718E  E20F               	bc	l2175
  5444  007190  5039               	movf	___fladd@exp2,w,c
  5445  007192  5C3A               	subwf	___fladd@exp1,w,c
  5446  007194  6E37               	movwf	??___fladd& (0+255),c
  5447  007196  0E20               	movlw	32
  5448  007198  6437               	cpfsgt	??___fladd,c
  5449  00719A  D009               	goto	l2175
  5450  00719C                     l653:
  5451  00719C  C02F  F02F         	movff	___fladd@f1,?___fladd
  5452  0071A0  C030  F030         	movff	___fladd@f1+1,?___fladd+1
  5453  0071A4  C031  F031         	movff	___fladd@f1+2,?___fladd+2
  5454  0071A8  C032  F032         	movff	___fladd@f1+3,?___fladd+3
  5455  0071AC  D074               	goto	l650
  5456  0071AE                     l2175:
  5457  0071AE  0E06               	movlw	6
  5458  0071B0  6E38               	movwf	___fladd@sign,c
  5459  0071B2  BE32               	btfsc	___fladd@f1+3,7,c
  5460  0071B4  8E38               	bsf	___fladd@sign,7,c
  5461  0071B6  BE36               	btfsc	___fladd@f2+3,7,c
  5462  0071B8  8C38               	bsf	___fladd@sign,6,c
  5463  0071BA  8E31               	bsf	___fladd@f1+2,7,c
  5464  0071BC  6A32               	clrf	___fladd@f1+3,c
  5465  0071BE  8E35               	bsf	___fladd@f2+2,7,c
  5466  0071C0  6A36               	clrf	___fladd@f2+3,c
  5467  0071C2  5039               	movf	___fladd@exp2,w,c
  5468  0071C4  5C3A               	subwf	___fladd@exp1,w,c
  5469  0071C6  E21A               	bc	l2199
  5470  0071C8                     l2189:
  5471  0071C8  90D8               	bcf	status,0,c
  5472  0071CA  3633               	rlcf	___fladd@f2,f,c
  5473  0071CC  3634               	rlcf	___fladd@f2+1,f,c
  5474  0071CE  3635               	rlcf	___fladd@f2+2,f,c
  5475  0071D0  3636               	rlcf	___fladd@f2+3,f,c
  5476  0071D2  0639               	decf	___fladd@exp2,f,c
  5477  0071D4  503A               	movf	___fladd@exp1,w,c
  5478  0071D6  1839               	xorwf	___fladd@exp2,w,c
  5479  0071D8  E00D               	bz	l2197
  5480  0071DA  0638               	decf	___fladd@sign,f,c
  5481  0071DC  C038  F037         	movff	___fladd@sign,??___fladd
  5482  0071E0  0E07               	movlw	7
  5483  0071E2  1637               	andwf	??___fladd,f,c
  5484  0071E4  E007               	bz	l2197
  5485  0071E6  D7F0               	goto	l2189
  5486  0071E8                     l2195:
  5487  0071E8  90D8               	bcf	status,0,c
  5488  0071EA  3232               	rrcf	___fladd@f1+3,f,c
  5489  0071EC  3231               	rrcf	___fladd@f1+2,f,c
  5490  0071EE  3230               	rrcf	___fladd@f1+1,f,c
  5491  0071F0  322F               	rrcf	___fladd@f1,f,c
  5492  0071F2  2A3A               	incf	___fladd@exp1,f,c
  5493  0071F4                     l2197:
  5494  0071F4  5039               	movf	___fladd@exp2,w,c
  5495  0071F6  183A               	xorwf	___fladd@exp1,w,c
  5496  0071F8  E01D               	bz	l664
  5497  0071FA  D7F6               	goto	l2195
  5498  0071FC                     l2199:
  5499  0071FC  503A               	movf	___fladd@exp1,w,c
  5500  0071FE  5C39               	subwf	___fladd@exp2,w,c
  5501  007200  E219               	bc	l664
  5502  007202                     l2201:
  5503  007202  90D8               	bcf	status,0,c
  5504  007204  362F               	rlcf	___fladd@f1,f,c
  5505  007206  3630               	rlcf	___fladd@f1+1,f,c
  5506  007208  3631               	rlcf	___fladd@f1+2,f,c
  5507  00720A  3632               	rlcf	___fladd@f1+3,f,c
  5508  00720C  063A               	decf	___fladd@exp1,f,c
  5509  00720E  503A               	movf	___fladd@exp1,w,c
  5510  007210  1839               	xorwf	___fladd@exp2,w,c
  5511  007212  E00D               	bz	l2209
  5512  007214  0638               	decf	___fladd@sign,f,c
  5513  007216  C038  F037         	movff	___fladd@sign,??___fladd
  5514  00721A  0E07               	movlw	7
  5515  00721C  1637               	andwf	??___fladd,f,c
  5516  00721E  E007               	bz	l2209
  5517  007220  D7F0               	goto	l2201
  5518  007222                     l2207:
  5519  007222  90D8               	bcf	status,0,c
  5520  007224  3236               	rrcf	___fladd@f2+3,f,c
  5521  007226  3235               	rrcf	___fladd@f2+2,f,c
  5522  007228  3234               	rrcf	___fladd@f2+1,f,c
  5523  00722A  3233               	rrcf	___fladd@f2,f,c
  5524  00722C  2A39               	incf	___fladd@exp2,f,c
  5525  00722E                     l2209:
  5526  00722E  5039               	movf	___fladd@exp2,w,c
  5527  007230  183A               	xorwf	___fladd@exp1,w,c
  5528  007232  E1F7               	bnz	l2207
  5529  007234                     l664:
  5530  007234  AE38               	btfss	___fladd@sign,7,c
  5531  007236  D009               	goto	l2213
  5532  007238  1E2F               	comf	___fladd@f1,f,c
  5533  00723A  1E30               	comf	___fladd@f1+1,f,c
  5534  00723C  1E31               	comf	___fladd@f1+2,f,c
  5535  00723E  1E32               	comf	___fladd@f1+3,f,c
  5536  007240  2A2F               	incf	___fladd@f1,f,c
  5537  007242  0E00               	movlw	0
  5538  007244  2230               	addwfc	___fladd@f1+1,f,c
  5539  007246  2231               	addwfc	___fladd@f1+2,f,c
  5540  007248  2232               	addwfc	___fladd@f1+3,f,c
  5541  00724A                     l2213:
  5542  00724A  BC38               	btfsc	___fladd@sign,6,c
  5543  00724C  D825               	call	PL40	;call to abstracted procedure
  5544  00724E  6A38               	clrf	___fladd@sign,c
  5545  007250  502F               	movf	___fladd@f1,w,c
  5546  007252  2633               	addwf	___fladd@f2,f,c
  5547  007254  5030               	movf	___fladd@f1+1,w,c
  5548  007256  2234               	addwfc	___fladd@f2+1,f,c
  5549  007258  5031               	movf	___fladd@f1+2,w,c
  5550  00725A  2235               	addwfc	___fladd@f2+2,f,c
  5551  00725C  5032               	movf	___fladd@f1+3,w,c
  5552  00725E  2236               	addwfc	___fladd@f2+3,f,c
  5553  007260  AE36               	btfss	___fladd@f2+3,7,c
  5554  007262  D003               	goto	l2225
  5555  007264  D819               	call	PL40	;call to abstracted procedure
  5556  007266  0E01               	movlw	1
  5557  007268  6E38               	movwf	___fladd@sign,c
  5558  00726A                     l2225:
  5559  00726A  C033  F001         	movff	___fladd@f2,___flpack@arg
  5560  00726E  C034  F002         	movff	___fladd@f2+1,___flpack@arg+1
  5561  007272  C035  F003         	movff	___fladd@f2+2,___flpack@arg+2
  5562  007276  C036  F004         	movff	___fladd@f2+3,___flpack@arg+3
  5563  00727A  C03A  F005         	movff	___fladd@exp1,___flpack@exp
  5564  00727E  C038  F006         	movff	___fladd@sign,___flpack@sign
  5565  007282  EC7A  F036         	call	___flpack	;wreg free
  5566  007286  C001  F02F         	movff	?___flpack,?___fladd
  5567  00728A  C002  F030         	movff	?___flpack+1,?___fladd+1
  5568  00728E  C003  F031         	movff	?___flpack+2,?___fladd+2
  5569  007292  C004  F032         	movff	?___flpack+3,?___fladd+3
  5570  007296                     l650:
  5571  007296  0012               	return		;funcret
  5572  007298                     __end_of___fladd:
  5573                           	opt stack 0
  5574  007298                     PL40:
  5575                           	opt stack 27
  5576  007298  1E33               	comf	___fladd@f2,f,c
  5577  00729A  1E34               	comf	___fladd@f2+1,f,c
  5578  00729C  1E35               	comf	___fladd@f2+2,f,c
  5579  00729E  1E36               	comf	___fladd@f2+3,f,c
  5580  0072A0  2A33               	incf	___fladd@f2,f,c
  5581  0072A2  0E00               	movlw	0
  5582  0072A4  2234               	addwfc	___fladd@f2+1,f,c
  5583  0072A6  2235               	addwfc	___fladd@f2+2,f,c
  5584  0072A8  2236               	addwfc	___fladd@f2+3,f,c
  5585  0072AA  0C00               	retlw	0
  5586  0072AC                     __end_ofPL40:
  5587                           	opt stack 0
  5588                           tblptru	equ	0xFF8
  5589                           tblptrh	equ	0xFF7
  5590                           tblptrl	equ	0xFF6
  5591                           tablat	equ	0xFF5
  5592                           prodh	equ	0xFF4
  5593                           prodl	equ	0xFF3
  5594                           indf0	equ	0xFEF
  5595                           fsr0h	equ	0xFEA
  5596                           fsr0l	equ	0xFE9
  5597                           wreg	equ	0xFE8
  5598                           indf2	equ	0xFDF
  5599                           postinc2	equ	0xFDE
  5600                           postdec2	equ	0xFDD
  5601                           fsr2h	equ	0xFDA
  5602                           fsr2l	equ	0xFD9
  5603                           status	equ	0xFD8
  5604                           
  5605 ;; *************** function _ES15007_ReadPress *****************
  5606 ;; Defined at:
  5607 ;;		line 53 in file "ES15007.c"
  5608 ;; Parameters:    Size  Location     Type
  5609 ;;		None
  5610 ;; Auto vars:     Size  Location     Type
  5611 ;;  press           4   81[COMRAM] float 
  5612 ;;  qzd_press_hi    2   87[COMRAM] struct .
  5613 ;;  qzd_press_lo    2   85[COMRAM] struct .
  5614 ;; Return value:  Size  Location     Type
  5615 ;;                  4   73[COMRAM] float 
  5616 ;; Registers used:
  5617 ;;		wreg, status,2, status,0, cstack
  5618 ;; Tracked objects:
  5619 ;;		On entry : 0/0
  5620 ;;		On exit  : 0/0
  5621 ;;		Unchanged: 0/0
  5622 ;; Data sizes:     COMRAM   BANK0   BANK1   BANK2   BANK3   BANK4   BANK5
  5623 ;;      Params:         4       0       0       0       0       0       0
  5624 ;;      Locals:         8       0       0       0       0       0       0
  5625 ;;      Temps:          4       0       0       0       0       0       0
  5626 ;;      Totals:        16       0       0       0       0       0       0
  5627 ;;Total ram usage:       16 bytes
  5628 ;; Hardware stack levels used:    1
  5629 ;; Hardware stack levels required when called:    2
  5630 ;; This function calls:
  5631 ;;		_I2C_ReadByte
  5632 ;;		_I2C_RepeatedStart
  5633 ;;		_I2C_Start
  5634 ;;		_I2C_Stop
  5635 ;;		_I2C_WriteByte
  5636 ;;		___altofl
  5637 ;;		___fldiv
  5638 ;; This function is called by:
  5639 ;;		_main
  5640 ;; This function uses a non-reentrant model
  5641 ;;
  5642                           
  5643                           	psect	text27
  5644  006E86                     __ptext27:
  5645                           	opt stack 0
  5646  006E86                     _ES15007_ReadPress:
  5647                           	opt stack 28
  5648                           
  5649                           ;ES15007.c: 56: union
  5650                           ;ES15007.c: 57: {
  5651                           ;ES15007.c: 58: uint16_t pressure_16;
  5652                           ;ES15007.c: 59: uint8_t pressure_databyte[2];
  5653                           ;ES15007.c: 60: }qzd_press_lo;
  5654                           ;ES15007.c: 61: union
  5655                           ;ES15007.c: 62: {
  5656                           ;ES15007.c: 63: uint16_t pressure_16;
  5657                           ;ES15007.c: 64: uint8_t pressure_databyte[2];
  5658                           ;ES15007.c: 65: }qzd_press_hi;
  5659                           ;ES15007.c: 67: I2C_Start();
  5660                           
  5661                           ;incstack = 0
  5662  006E86  EC80  F032         	call	_I2C_Start	;wreg free
  5663                           
  5664                           ;ES15007.c: 68: I2C_WriteByte(0x20);
  5665  006E8A  0E20               	movlw	32
  5666  006E8C  ECFC  F032         	call	_I2C_WriteByte
  5667                           
  5668                           ;ES15007.c: 69: I2C_WriteByte(0x16);
  5669  006E90  0E16               	movlw	22
  5670  006E92  ECFC  F032         	call	_I2C_WriteByte
  5671                           
  5672                           ;ES15007.c: 70: I2C_RepeatedStart();
  5673  006E96  EC7A  F032         	call	_I2C_RepeatedStart	;wreg free
  5674                           
  5675                           ;ES15007.c: 71: I2C_WriteByte(0x20 + 1);
  5676  006E9A  0E21               	movlw	33
  5677  006E9C  ECFC  F032         	call	_I2C_WriteByte
  5678                           
  5679                           ;ES15007.c: 72: qzd_press_lo.pressure_databyte[0] = I2C_ReadByte(1);
  5680  006EA0  0E01               	movlw	1
  5681  006EA2  EC88  F033         	call	_I2C_ReadByte
  5682  006EA6  6E56               	movwf	ES15007_ReadPress@qzd_press_lo,c
  5683                           
  5684                           ;ES15007.c: 73: qzd_press_lo.pressure_databyte[1] = I2C_ReadByte(0);
  5685  006EA8  0E00               	movlw	0
  5686  006EAA  EC88  F033         	call	_I2C_ReadByte
  5687  006EAE  6E57               	movwf	ES15007_ReadPress@qzd_press_lo+1,c
  5688                           
  5689                           ;ES15007.c: 74: I2C_Stop();
  5690  006EB0  EC86  F032         	call	_I2C_Stop	;wreg free
  5691                           
  5692                           ;ES15007.c: 77: I2C_Start();
  5693  006EB4  EC80  F032         	call	_I2C_Start	;wreg free
  5694                           
  5695                           ;ES15007.c: 78: I2C_WriteByte(0x20);
  5696  006EB8  0E20               	movlw	32
  5697  006EBA  ECFC  F032         	call	_I2C_WriteByte
  5698                           
  5699                           ;ES15007.c: 79: I2C_WriteByte(0x17);
  5700  006EBE  0E17               	movlw	23
  5701  006EC0  ECFC  F032         	call	_I2C_WriteByte
  5702                           
  5703                           ;ES15007.c: 80: I2C_RepeatedStart();
  5704  006EC4  EC7A  F032         	call	_I2C_RepeatedStart	;wreg free
  5705                           
  5706                           ;ES15007.c: 81: I2C_WriteByte(0x20 + 1);
  5707  006EC8  0E21               	movlw	33
  5708  006ECA  ECFC  F032         	call	_I2C_WriteByte
  5709                           
  5710                           ;ES15007.c: 82: qzd_press_hi.pressure_databyte[0] = I2C_ReadByte(1);
  5711  006ECE  0E01               	movlw	1
  5712  006ED0  EC88  F033         	call	_I2C_ReadByte
  5713  006ED4  6E58               	movwf	ES15007_ReadPress@qzd_press_hi,c
  5714                           
  5715                           ;ES15007.c: 83: qzd_press_hi.pressure_databyte[1] = I2C_ReadByte(0);
  5716  006ED6  0E00               	movlw	0
  5717  006ED8  EC88  F033         	call	_I2C_ReadByte
  5718  006EDC  6E59               	movwf	ES15007_ReadPress@qzd_press_hi+1,c
  5719                           
  5720                           ;ES15007.c: 84: I2C_Stop();
  5721  006EDE  EC86  F032         	call	_I2C_Stop	;wreg free
  5722                           
  5723                           ;ES15007.c: 87: press = (float)(qzd_press_lo.pressure_16 + (65536 * qzd_press_hi.pressur
      +                          e_16))/(65536);
  5724  006EE2  5058               	movf	ES15007_ReadPress@qzd_press_hi,w,c
  5725  006EE4  6E4E               	movwf	??_ES15007_ReadPress& (0+255),c
  5726  006EE6  5059               	movf	ES15007_ReadPress@qzd_press_hi+1,w,c
  5727  006EE8  6E4F               	movwf	(??_ES15007_ReadPress+1)& (0+255),c
  5728  006EEA  6A50               	clrf	(??_ES15007_ReadPress+2)& (0+255),c
  5729  006EEC  6A51               	clrf	(??_ES15007_ReadPress+3)& (0+255),c
  5730  006EEE  C04F  F051         	movff	??_ES15007_ReadPress+1,??_ES15007_ReadPress+3
  5731  006EF2  C04E  F050         	movff	??_ES15007_ReadPress,??_ES15007_ReadPress+2
  5732  006EF6  6A4F               	clrf	??_ES15007_ReadPress+1,c
  5733  006EF8  6A4E               	clrf	??_ES15007_ReadPress,c
  5734  006EFA  5056               	movf	ES15007_ReadPress@qzd_press_lo,w,c
  5735  006EFC  244E               	addwf	??_ES15007_ReadPress,w,c
  5736  006EFE  6E0B               	movwf	___altofl@c,c
  5737  006F00  5057               	movf	ES15007_ReadPress@qzd_press_lo+1,w,c
  5738  006F02  204F               	addwfc	??_ES15007_ReadPress+1,w,c
  5739  006F04  6E0C               	movwf	___altofl@c+1,c
  5740  006F06  0E00               	movlw	0
  5741  006F08  2050               	addwfc	??_ES15007_ReadPress+2,w,c
  5742  006F0A  6E0D               	movwf	___altofl@c+2,c
  5743  006F0C  0E00               	movlw	0
  5744  006F0E  2051               	addwfc	??_ES15007_ReadPress+3,w,c
  5745  006F10  6E0E               	movwf	___altofl@c+3,c
  5746  006F12  ECC9  F033         	call	___altofl	;wreg free
  5747  006F16  C00B  F03B         	movff	?___altofl,___fldiv@f1
  5748  006F1A  C00C  F03C         	movff	?___altofl+1,___fldiv@f1+1
  5749  006F1E  C00D  F03D         	movff	?___altofl+2,___fldiv@f1+2
  5750  006F22  C00E  F03E         	movff	?___altofl+3,___fldiv@f1+3
  5751  006F26  0E00               	movlw	0
  5752  006F28  6E3F               	movwf	___fldiv@f2,c
  5753  006F2A  6E40               	movwf	___fldiv@f2+1,c
  5754  006F2C  0E80               	movlw	128
  5755  006F2E  6E41               	movwf	___fldiv@f2+2,c
  5756  006F30  0E47               	movlw	71
  5757  006F32  6E42               	movwf	___fldiv@f2+3,c
  5758  006F34  EC6B  F035         	call	___fldiv	;wreg free
  5759  006F38  C03B  F052         	movff	?___fldiv,ES15007_ReadPress@press
  5760  006F3C  C03C  F053         	movff	?___fldiv+1,ES15007_ReadPress@press+1
  5761  006F40  C03D  F054         	movff	?___fldiv+2,ES15007_ReadPress@press+2
  5762  006F44  C03E  F055         	movff	?___fldiv+3,ES15007_ReadPress@press+3
  5763                           
  5764                           ;ES15007.c: 89: return press;
  5765  006F48  C052  F04A         	movff	ES15007_ReadPress@press,?_ES15007_ReadPress
  5766  006F4C  C053  F04B         	movff	ES15007_ReadPress@press+1,?_ES15007_ReadPress+1
  5767  006F50  C054  F04C         	movff	ES15007_ReadPress@press+2,?_ES15007_ReadPress+2
  5768  006F54  C055  F04D         	movff	ES15007_ReadPress@press+3,?_ES15007_ReadPress+3
  5769  006F58  0012               	return		;funcret
  5770  006F5A                     __end_of_ES15007_ReadPress:
  5771                           	opt stack 0
  5772                           tblptru	equ	0xFF8
  5773                           tblptrh	equ	0xFF7
  5774                           tblptrl	equ	0xFF6
  5775                           tablat	equ	0xFF5
  5776                           prodh	equ	0xFF4
  5777                           prodl	equ	0xFF3
  5778                           indf0	equ	0xFEF
  5779                           fsr0h	equ	0xFEA
  5780                           fsr0l	equ	0xFE9
  5781                           wreg	equ	0xFE8
  5782                           indf2	equ	0xFDF
  5783                           postinc2	equ	0xFDE
  5784                           postdec2	equ	0xFDD
  5785                           fsr2h	equ	0xFDA
  5786                           fsr2l	equ	0xFD9
  5787                           status	equ	0xFD8
  5788                           
  5789 ;; *************** function ___fldiv *****************
  5790 ;; Defined at:
  5791 ;;		line 54 in file "C:\Program Files (x86)\Microchip\xc8\v1.34\sources\common\fldiv.c"
  5792 ;; Parameters:    Size  Location     Type
  5793 ;;  f1              4   58[COMRAM] float 
  5794 ;;  f2              4   62[COMRAM] float 
  5795 ;; Auto vars:     Size  Location     Type
  5796 ;;  f3              4   66[COMRAM] float 
  5797 ;;  sign            1   72[COMRAM] unsigned char 
  5798 ;;  exp             1   71[COMRAM] unsigned char 
  5799 ;;  cntr            1   70[COMRAM] unsigned char 
  5800 ;; Return value:  Size  Location     Type
  5801 ;;                  4   58[COMRAM] unsigned char 
  5802 ;; Registers used:
  5803 ;;		wreg, status,2, status,0, cstack
  5804 ;; Tracked objects:
  5805 ;;		On entry : 0/0
  5806 ;;		On exit  : 0/0
  5807 ;;		Unchanged: 0/0
  5808 ;; Data sizes:     COMRAM   BANK0   BANK1   BANK2   BANK3   BANK4   BANK5
  5809 ;;      Params:         8       0       0       0       0       0       0
  5810 ;;      Locals:         7       0       0       0       0       0       0
  5811 ;;      Temps:          0       0       0       0       0       0       0
  5812 ;;      Totals:        15       0       0       0       0       0       0
  5813 ;;Total ram usage:       15 bytes
  5814 ;; Hardware stack levels used:    1
  5815 ;; Hardware stack levels required when called:    1
  5816 ;; This function calls:
  5817 ;;		___flpack
  5818 ;; This function is called by:
  5819 ;;		_ES15007_ReadPress
  5820 ;;		_ES15007_ReadTemp
  5821 ;; This function uses a non-reentrant model
  5822 ;;
  5823                           
  5824                           	psect	text28
  5825  006AD6                     __ptext28:
  5826                           	opt stack 0
  5827  006AD6                     ___fldiv:
  5828                           	opt stack 28
  5829                           
  5830                           ;incstack = 0
  5831  006AD6  343D               	rlcf	___fldiv@f1+2,w,c
  5832  006AD8  343E               	rlcf	___fldiv@f1+3,w,c
  5833  006ADA  6E48               	movwf	___fldiv@exp,c
  5834  006ADC  5048               	movf	___fldiv@exp,w,c
  5835  006ADE  E005               	bz	l2647
  5836  006AE0  3441               	rlcf	___fldiv@f2+2,w,c
  5837  006AE2  3442               	rlcf	___fldiv@f2+3,w,c
  5838  006AE4  6E49               	movwf	___fldiv@sign,c
  5839  006AE6  5049               	movf	___fldiv@sign,w,c
  5840  006AE8  E105               	bnz	l2649
  5841  006AEA                     l2647:
  5842  006AEA  6A3B               	clrf	?___fldiv,c
  5843  006AEC  6A3C               	clrf	?___fldiv+1,c
  5844  006AEE  6A3D               	clrf	?___fldiv+2,c
  5845  006AF0  6A3E               	clrf	?___fldiv+3,c
  5846  006AF2  D043               	goto	l681
  5847  006AF4                     l2649:
  5848  006AF4  5049               	movf	___fldiv@sign,w,c
  5849  006AF6  0F89               	addlw	137
  5850  006AF8  5E48               	subwf	___fldiv@exp,f,c
  5851  006AFA  C03E  F049         	movff	___fldiv@f1+3,___fldiv@sign
  5852  006AFE  5042               	movf	___fldiv@f2+3,w,c
  5853  006B00  1A49               	xorwf	___fldiv@sign,f,c
  5854  006B02  0E80               	movlw	128
  5855  006B04  1649               	andwf	___fldiv@sign,f,c
  5856  006B06  8E3D               	bsf	___fldiv@f1+2,7,c
  5857  006B08  6A3E               	clrf	___fldiv@f1+3,c
  5858  006B0A  8E41               	bsf	___fldiv@f2+2,7,c
  5859  006B0C  6A42               	clrf	___fldiv@f2+3,c
  5860  006B0E  0E20               	movlw	32
  5861  006B10  6E47               	movwf	___fldiv@cntr,c
  5862  006B12                     l2661:
  5863  006B12  90D8               	bcf	status,0,c
  5864  006B14  3643               	rlcf	___fldiv@f3,f,c
  5865  006B16  3644               	rlcf	___fldiv@f3+1,f,c
  5866  006B18  3645               	rlcf	___fldiv@f3+2,f,c
  5867  006B1A  3646               	rlcf	___fldiv@f3+3,f,c
  5868  006B1C  503F               	movf	___fldiv@f2,w,c
  5869  006B1E  5C3B               	subwf	___fldiv@f1,w,c
  5870  006B20  5040               	movf	___fldiv@f2+1,w,c
  5871  006B22  583C               	subwfb	___fldiv@f1+1,w,c
  5872  006B24  5041               	movf	___fldiv@f2+2,w,c
  5873  006B26  583D               	subwfb	___fldiv@f1+2,w,c
  5874  006B28  5042               	movf	___fldiv@f2+3,w,c
  5875  006B2A  583E               	subwfb	___fldiv@f1+3,w,c
  5876  006B2C  E309               	bnc	l2669
  5877  006B2E  503F               	movf	___fldiv@f2,w,c
  5878  006B30  5E3B               	subwf	___fldiv@f1,f,c
  5879  006B32  5040               	movf	___fldiv@f2+1,w,c
  5880  006B34  5A3C               	subwfb	___fldiv@f1+1,f,c
  5881  006B36  5041               	movf	___fldiv@f2+2,w,c
  5882  006B38  5A3D               	subwfb	___fldiv@f1+2,f,c
  5883  006B3A  5042               	movf	___fldiv@f2+3,w,c
  5884  006B3C  5A3E               	subwfb	___fldiv@f1+3,f,c
  5885  006B3E  8043               	bsf	___fldiv@f3,0,c
  5886  006B40                     l2669:
  5887  006B40  90D8               	bcf	status,0,c
  5888  006B42  363B               	rlcf	___fldiv@f1,f,c
  5889  006B44  363C               	rlcf	___fldiv@f1+1,f,c
  5890  006B46  363D               	rlcf	___fldiv@f1+2,f,c
  5891  006B48  363E               	rlcf	___fldiv@f1+3,f,c
  5892  006B4A  2E47               	decfsz	___fldiv@cntr,f,c
  5893  006B4C  D7E2               	goto	l2661
  5894  006B4E  C043  F001         	movff	___fldiv@f3,___flpack@arg
  5895  006B52  C044  F002         	movff	___fldiv@f3+1,___flpack@arg+1
  5896  006B56  C045  F003         	movff	___fldiv@f3+2,___flpack@arg+2
  5897  006B5A  C046  F004         	movff	___fldiv@f3+3,___flpack@arg+3
  5898  006B5E  C048  F005         	movff	___fldiv@exp,___flpack@exp
  5899  006B62  C049  F006         	movff	___fldiv@sign,___flpack@sign
  5900  006B66  EC7A  F036         	call	___flpack	;wreg free
  5901  006B6A  C001  F03B         	movff	?___flpack,?___fldiv
  5902  006B6E  C002  F03C         	movff	?___flpack+1,?___fldiv+1
  5903  006B72  C003  F03D         	movff	?___flpack+2,?___fldiv+2
  5904  006B76  C004  F03E         	movff	?___flpack+3,?___fldiv+3
  5905  006B7A                     l681:
  5906  006B7A  0012               	return		;funcret
  5907  006B7C                     __end_of___fldiv:
  5908                           	opt stack 0
  5909                           tblptru	equ	0xFF8
  5910                           tblptrh	equ	0xFF7
  5911                           tblptrl	equ	0xFF6
  5912                           tablat	equ	0xFF5
  5913                           prodh	equ	0xFF4
  5914                           prodl	equ	0xFF3
  5915                           indf0	equ	0xFEF
  5916                           fsr0h	equ	0xFEA
  5917                           fsr0l	equ	0xFE9
  5918                           wreg	equ	0xFE8
  5919                           indf2	equ	0xFDF
  5920                           postinc2	equ	0xFDE
  5921                           postdec2	equ	0xFDD
  5922                           fsr2h	equ	0xFDA
  5923                           fsr2l	equ	0xFD9
  5924                           status	equ	0xFD8
  5925                           
  5926 ;; *************** function ___altofl *****************
  5927 ;; Defined at:
  5928 ;;		line 36 in file "C:\Program Files (x86)\Microchip\xc8\v1.34\sources\common\altofl.c"
  5929 ;; Parameters:    Size  Location     Type
  5930 ;;  c               4   10[COMRAM] long 
  5931 ;; Auto vars:     Size  Location     Type
  5932 ;;  sign            1   14[COMRAM] unsigned char 
  5933 ;; Return value:  Size  Location     Type
  5934 ;;                  4   10[COMRAM] unsigned char 
  5935 ;; Registers used:
  5936 ;;		wreg, status,2, status,0, cstack
  5937 ;; Tracked objects:
  5938 ;;		On entry : 0/0
  5939 ;;		On exit  : 0/0
  5940 ;;		Unchanged: 0/0
  5941 ;; Data sizes:     COMRAM   BANK0   BANK1   BANK2   BANK3   BANK4   BANK5
  5942 ;;      Params:         4       0       0       0       0       0       0
  5943 ;;      Locals:         1       0       0       0       0       0       0
  5944 ;;      Temps:          0       0       0       0       0       0       0
  5945 ;;      Totals:         5       0       0       0       0       0       0
  5946 ;;Total ram usage:        5 bytes
  5947 ;; Hardware stack levels used:    1
  5948 ;; Hardware stack levels required when called:    1
  5949 ;; This function calls:
  5950 ;;		___flpack
  5951 ;; This function is called by:
  5952 ;;		_ES15007_ReadPress
  5953 ;; This function uses a non-reentrant model
  5954 ;;
  5955                           
  5956                           	psect	text29
  5957  006792                     __ptext29:
  5958                           	opt stack 0
  5959  006792                     ___altofl:
  5960                           	opt stack 28
  5961                           
  5962                           ;incstack = 0
  5963  006792  6A0F               	clrf	___altofl@sign,c
  5964  006794  AE0E               	btfss	___altofl@c+3,7,c
  5965  006796  D00A               	goto	l2637
  5966  006798  1E0E               	comf	___altofl@c+3,f,c
  5967  00679A  1E0D               	comf	___altofl@c+2,f,c
  5968  00679C  1E0C               	comf	___altofl@c+1,f,c
  5969  00679E  6C0B               	negf	___altofl@c,c
  5970  0067A0  0E00               	movlw	0
  5971  0067A2  220C               	addwfc	___altofl@c+1,f,c
  5972  0067A4  220D               	addwfc	___altofl@c+2,f,c
  5973  0067A6  220E               	addwfc	___altofl@c+3,f,c
  5974  0067A8  0E01               	movlw	1
  5975  0067AA  6E0F               	movwf	___altofl@sign,c
  5976  0067AC                     l2637:
  5977  0067AC  C00B  F001         	movff	___altofl@c,___flpack@arg
  5978  0067B0  C00C  F002         	movff	___altofl@c+1,___flpack@arg+1
  5979  0067B4  C00D  F003         	movff	___altofl@c+2,___flpack@arg+2
  5980  0067B8  C00E  F004         	movff	___altofl@c+3,___flpack@arg+3
  5981  0067BC  0E96               	movlw	150
  5982  0067BE  6E05               	movwf	___flpack@exp,c
  5983  0067C0  C00F  F006         	movff	___altofl@sign,___flpack@sign
  5984  0067C4  EC7A  F036         	call	___flpack	;wreg free
  5985  0067C8  C001  F00B         	movff	?___flpack,?___altofl
  5986  0067CC  C002  F00C         	movff	?___flpack+1,?___altofl+1
  5987  0067D0  C003  F00D         	movff	?___flpack+2,?___altofl+2
  5988  0067D4  C004  F00E         	movff	?___flpack+3,?___altofl+3
  5989  0067D8  0012               	return		;funcret
  5990  0067DA                     __end_of___altofl:
  5991                           	opt stack 0
  5992                           tblptru	equ	0xFF8
  5993                           tblptrh	equ	0xFF7
  5994                           tblptrl	equ	0xFF6
  5995                           tablat	equ	0xFF5
  5996                           prodh	equ	0xFF4
  5997                           prodl	equ	0xFF3
  5998                           indf0	equ	0xFEF
  5999                           fsr0h	equ	0xFEA
  6000                           fsr0l	equ	0xFE9
  6001                           wreg	equ	0xFE8
  6002                           indf2	equ	0xFDF
  6003                           postinc2	equ	0xFDE
  6004                           postdec2	equ	0xFDD
  6005                           fsr2h	equ	0xFDA
  6006                           fsr2l	equ	0xFD9
  6007                           status	equ	0xFD8
  6008                           
  6009 ;; *************** function ___flpack *****************
  6010 ;; Defined at:
  6011 ;;		line 63 in file "C:\Program Files (x86)\Microchip\xc8\v1.34\sources\common\double.c"
  6012 ;; Parameters:    Size  Location     Type
  6013 ;;  arg             4    0[COMRAM] unsigned long 
  6014 ;;  exp             1    4[COMRAM] unsigned char 
  6015 ;;  sign            1    5[COMRAM] unsigned char 
  6016 ;; Auto vars:     Size  Location     Type
  6017 ;;		None
  6018 ;; Return value:  Size  Location     Type
  6019 ;;                  4    0[COMRAM] unsigned char 
  6020 ;; Registers used:
  6021 ;;		wreg, status,2, status,0
  6022 ;; Tracked objects:
  6023 ;;		On entry : 0/0
  6024 ;;		On exit  : 0/0
  6025 ;;		Unchanged: 0/0
  6026 ;; Data sizes:     COMRAM   BANK0   BANK1   BANK2   BANK3   BANK4   BANK5
  6027 ;;      Params:         6       0       0       0       0       0       0
  6028 ;;      Locals:         0       0       0       0       0       0       0
  6029 ;;      Temps:          4       0       0       0       0       0       0
  6030 ;;      Totals:        10       0       0       0       0       0       0
  6031 ;;Total ram usage:       10 bytes
  6032 ;; Hardware stack levels used:    1
  6033 ;; This function calls:
  6034 ;;		Nothing
  6035 ;; This function is called by:
  6036 ;;		___altofl
  6037 ;;		___fladd
  6038 ;;		___fldiv
  6039 ;;		___flmul
  6040 ;;		___lltofl
  6041 ;;		___lwtofl
  6042 ;; This function uses a non-reentrant model
  6043 ;;
  6044                           
  6045                           	psect	text30
  6046  006CF4                     __ptext30:
  6047                           	opt stack 0
  6048  006CF4                     ___flpack:
  6049                           	opt stack 27
  6050                           
  6051                           ;incstack = 0
  6052  006CF4  5005               	movf	___flpack@exp,w,c
  6053  006CF6  E005               	bz	l628
  6054  006CF8  5001               	movf	___flpack@arg,w,c
  6055  006CFA  1002               	iorwf	___flpack@arg+1,w,c
  6056  006CFC  1003               	iorwf	___flpack@arg+2,w,c
  6057  006CFE  1004               	iorwf	___flpack@arg+3,w,c
  6058  006D00  E107               	bnz	l2135
  6059  006D02                     l628:
  6060  006D02  6A01               	clrf	?___flpack,c
  6061  006D04  6A02               	clrf	?___flpack+1,c
  6062  006D06  6A03               	clrf	?___flpack+2,c
  6063  006D08  6A04               	clrf	?___flpack+3,c
  6064  006D0A  D04E               	goto	l629
  6065  006D0C                     l2133:
  6066  006D0C  2A05               	incf	___flpack@exp,f,c
  6067  006D0E  D84D               	call	PL56	;call to abstracted procedure
  6068  006D10                     l2135:
  6069  006D10  6A07               	clrf	??___flpack& (0+255),c
  6070  006D12  6A08               	clrf	(??___flpack+1)& (0+255),c
  6071  006D14  6A09               	clrf	(??___flpack+2)& (0+255),c
  6072  006D16  0EFE               	movlw	254
  6073  006D18  1404               	andwf	___flpack@arg+3,w,c
  6074  006D1A  6E0A               	movwf	(??___flpack+3)& (0+255),c
  6075  006D1C  5007               	movf	??___flpack,w,c
  6076  006D1E  1008               	iorwf	??___flpack+1,w,c
  6077  006D20  1009               	iorwf	??___flpack+2,w,c
  6078  006D22  100A               	iorwf	??___flpack+3,w,c
  6079  006D24  E008               	bz	l633
  6080  006D26  D7F2               	goto	l2133
  6081  006D28                     l2137:
  6082  006D28  2A05               	incf	___flpack@exp,f,c
  6083  006D2A  2A01               	incf	___flpack@arg,f,c
  6084  006D2C  0E00               	movlw	0
  6085  006D2E  2202               	addwfc	___flpack@arg+1,f,c
  6086  006D30  2203               	addwfc	___flpack@arg+2,f,c
  6087  006D32  2204               	addwfc	___flpack@arg+3,f,c
  6088  006D34  D83A               	call	PL56	;call to abstracted procedure
  6089  006D36                     l633:
  6090  006D36  6A07               	clrf	??___flpack& (0+255),c
  6091  006D38  6A08               	clrf	(??___flpack+1)& (0+255),c
  6092  006D3A  6A09               	clrf	(??___flpack+2)& (0+255),c
  6093  006D3C  5004               	movf	___flpack@arg+3,w,c
  6094  006D3E  6E0A               	movwf	(??___flpack+3)& (0+255),c
  6095  006D40  5007               	movf	??___flpack,w,c
  6096  006D42  1008               	iorwf	??___flpack+1,w,c
  6097  006D44  1009               	iorwf	??___flpack+2,w,c
  6098  006D46  100A               	iorwf	??___flpack+3,w,c
  6099  006D48  E007               	bz	l2145
  6100  006D4A  D7EE               	goto	l2137
  6101  006D4C                     l2143:
  6102  006D4C  0605               	decf	___flpack@exp,f,c
  6103  006D4E  90D8               	bcf	status,0,c
  6104  006D50  3601               	rlcf	___flpack@arg,f,c
  6105  006D52  3602               	rlcf	___flpack@arg+1,f,c
  6106  006D54  3603               	rlcf	___flpack@arg+2,f,c
  6107  006D56  3604               	rlcf	___flpack@arg+3,f,c
  6108  006D58                     l2145:
  6109  006D58  BE03               	btfsc	___flpack@arg+2,7,c
  6110  006D5A  D003               	goto	l640
  6111  006D5C  0E02               	movlw	2
  6112  006D5E  6005               	cpfslt	___flpack@exp,c
  6113  006D60  D7F5               	goto	l2143
  6114  006D62                     l640:
  6115  006D62  B005               	btfsc	___flpack@exp,0,c
  6116  006D64  D002               	goto	l641
  6117  006D66  0E7F               	movlw	127
  6118  006D68  1603               	andwf	___flpack@arg+2,f,c
  6119  006D6A                     l641:
  6120  006D6A  90D8               	bcf	status,0,c
  6121  006D6C  3205               	rrcf	___flpack@exp,f,c
  6122  006D6E  C005  F007         	movff	___flpack@exp,??___flpack
  6123  006D72  6A08               	clrf	(??___flpack+1)& (0+255),c
  6124  006D74  6A09               	clrf	(??___flpack+2)& (0+255),c
  6125  006D76  6A0A               	clrf	(??___flpack+3)& (0+255),c
  6126  006D78  C007  F00A         	movff	??___flpack,??___flpack+3
  6127  006D7C  6A09               	clrf	??___flpack+2,c
  6128  006D7E  6A08               	clrf	??___flpack+1,c
  6129  006D80  6A07               	clrf	??___flpack,c
  6130  006D82  5007               	movf	??___flpack,w,c
  6131  006D84  1201               	iorwf	___flpack@arg,f,c
  6132  006D86  5008               	movf	??___flpack+1,w,c
  6133  006D88  1202               	iorwf	___flpack@arg+1,f,c
  6134  006D8A  5009               	movf	??___flpack+2,w,c
  6135  006D8C  1203               	iorwf	___flpack@arg+2,f,c
  6136  006D8E  500A               	movf	??___flpack+3,w,c
  6137  006D90  1204               	iorwf	___flpack@arg+3,f,c
  6138  006D92  5006               	movf	___flpack@sign,w,c
  6139  006D94  A4D8               	btfss	status,2,c
  6140  006D96  8E04               	bsf	___flpack@arg+3,7,c
  6141  006D98  C001  F001         	movff	___flpack@arg,?___flpack
  6142  006D9C  C002  F002         	movff	___flpack@arg+1,?___flpack+1
  6143  006DA0  C003  F003         	movff	___flpack@arg+2,?___flpack+2
  6144  006DA4  C004  F004         	movff	___flpack@arg+3,?___flpack+3
  6145  006DA8                     l629:
  6146  006DA8  0012               	return		;funcret
  6147  006DAA                     __end_of___flpack:
  6148                           	opt stack 0
  6149  006DAA                     PL56:
  6150                           	opt stack 27
  6151  006DAA  90D8               	bcf	status,0,c
  6152  006DAC  3204               	rrcf	___flpack@arg+3,f,c
  6153  006DAE  3203               	rrcf	___flpack@arg+2,f,c
  6154  006DB0  3202               	rrcf	___flpack@arg+1,f,c
  6155  006DB2  3201               	rrcf	___flpack@arg,f,c
  6156  006DB4  0012               	return	
  6157  006DB6                     __end_ofPL56:
  6158                           	opt stack 0
  6159                           tblptru	equ	0xFF8
  6160                           tblptrh	equ	0xFF7
  6161                           tblptrl	equ	0xFF6
  6162                           tablat	equ	0xFF5
  6163                           prodh	equ	0xFF4
  6164                           prodl	equ	0xFF3
  6165                           indf0	equ	0xFEF
  6166                           fsr0h	equ	0xFEA
  6167                           fsr0l	equ	0xFE9
  6168                           wreg	equ	0xFE8
  6169                           indf2	equ	0xFDF
  6170                           postinc2	equ	0xFDE
  6171                           postdec2	equ	0xFDD
  6172                           fsr2h	equ	0xFDA
  6173                           fsr2l	equ	0xFD9
  6174                           status	equ	0xFD8
  6175                           
  6176 ;; *************** function _ES15007_Get_Status *****************
  6177 ;; Defined at:
  6178 ;;		line 38 in file "ES15007.c"
  6179 ;; Parameters:    Size  Location     Type
  6180 ;;		None
  6181 ;; Auto vars:     Size  Location     Type
  6182 ;;  status          1    3[COMRAM] unsigned char 
  6183 ;; Return value:  Size  Location     Type
  6184 ;;                  1    wreg      unsigned char 
  6185 ;; Registers used:
  6186 ;;		wreg, status,2, status,0, cstack
  6187 ;; Tracked objects:
  6188 ;;		On entry : 0/0
  6189 ;;		On exit  : 0/0
  6190 ;;		Unchanged: 0/0
  6191 ;; Data sizes:     COMRAM   BANK0   BANK1   BANK2   BANK3   BANK4   BANK5
  6192 ;;      Params:         0       0       0       0       0       0       0
  6193 ;;      Locals:         1       0       0       0       0       0       0
  6194 ;;      Temps:          0       0       0       0       0       0       0
  6195 ;;      Totals:         1       0       0       0       0       0       0
  6196 ;;Total ram usage:        1 bytes
  6197 ;; Hardware stack levels used:    1
  6198 ;; Hardware stack levels required when called:    2
  6199 ;; This function calls:
  6200 ;;		_I2C_ReadByte
  6201 ;;		_I2C_RepeatedStart
  6202 ;;		_I2C_Start
  6203 ;;		_I2C_Stop
  6204 ;;		_I2C_WriteByte
  6205 ;; This function is called by:
  6206 ;;		_main
  6207 ;; This function uses a non-reentrant model
  6208 ;;
  6209                           
  6210                           	psect	text31
  6211  006622                     __ptext31:
  6212                           	opt stack 0
  6213  006622                     _ES15007_Get_Status:
  6214                           	opt stack 28
  6215                           
  6216                           ;ES15007.c: 42: I2C_Start();
  6217                           
  6218                           ;incstack = 0
  6219  006622  EC80  F032         	call	_I2C_Start	;wreg free
  6220                           
  6221                           ;ES15007.c: 43: I2C_WriteByte(0x20);
  6222  006626  0E20               	movlw	32
  6223  006628  ECFC  F032         	call	_I2C_WriteByte
  6224                           
  6225                           ;ES15007.c: 44: I2C_WriteByte(0x03);
  6226  00662C  0E03               	movlw	3
  6227  00662E  ECFC  F032         	call	_I2C_WriteByte
  6228                           
  6229                           ;ES15007.c: 45: I2C_RepeatedStart();
  6230  006632  EC7A  F032         	call	_I2C_RepeatedStart	;wreg free
  6231                           
  6232                           ;ES15007.c: 46: I2C_WriteByte(0x20 + 1);
  6233  006636  0E21               	movlw	33
  6234  006638  ECFC  F032         	call	_I2C_WriteByte
  6235                           
  6236                           ;ES15007.c: 47: status = I2C_ReadByte(0);
  6237  00663C  0E00               	movlw	0
  6238  00663E  EC88  F033         	call	_I2C_ReadByte
  6239  006642  6E04               	movwf	ES15007_Get_Status@status,c
  6240                           
  6241                           ;ES15007.c: 48: I2C_Stop();
  6242  006644  EC86  F032         	call	_I2C_Stop	;wreg free
  6243                           
  6244                           ;ES15007.c: 50: return status;
  6245  006648  5004               	movf	ES15007_Get_Status@status,w,c
  6246  00664A  0012               	return		;funcret
  6247  00664C                     __end_of_ES15007_Get_Status:
  6248                           	opt stack 0
  6249                           tblptru	equ	0xFF8
  6250                           tblptrh	equ	0xFF7
  6251                           tblptrl	equ	0xFF6
  6252                           tablat	equ	0xFF5
  6253                           prodh	equ	0xFF4
  6254                           prodl	equ	0xFF3
  6255                           indf0	equ	0xFEF
  6256                           fsr0h	equ	0xFEA
  6257                           fsr0l	equ	0xFE9
  6258                           wreg	equ	0xFE8
  6259                           indf2	equ	0xFDF
  6260                           postinc2	equ	0xFDE
  6261                           postdec2	equ	0xFDD
  6262                           fsr2h	equ	0xFDA
  6263                           fsr2l	equ	0xFD9
  6264                           status	equ	0xFD8
  6265                           
  6266 ;; *************** function _ES15007_Get_Serial *****************
  6267 ;; Defined at:
  6268 ;;		line 18 in file "ES15007.c"
  6269 ;; Parameters:    Size  Location     Type
  6270 ;;		None
  6271 ;; Auto vars:     Size  Location     Type
  6272 ;;  serial          2    5[COMRAM] struct .
  6273 ;; Return value:  Size  Location     Type
  6274 ;;                  2    3[COMRAM] unsigned int 
  6275 ;; Registers used:
  6276 ;;		wreg, status,2, status,0, cstack
  6277 ;; Tracked objects:
  6278 ;;		On entry : 0/0
  6279 ;;		On exit  : 0/0
  6280 ;;		Unchanged: 0/0
  6281 ;; Data sizes:     COMRAM   BANK0   BANK1   BANK2   BANK3   BANK4   BANK5
  6282 ;;      Params:         2       0       0       0       0       0       0
  6283 ;;      Locals:         2       0       0       0       0       0       0
  6284 ;;      Temps:          0       0       0       0       0       0       0
  6285 ;;      Totals:         4       0       0       0       0       0       0
  6286 ;;Total ram usage:        4 bytes
  6287 ;; Hardware stack levels used:    1
  6288 ;; Hardware stack levels required when called:    2
  6289 ;; This function calls:
  6290 ;;		_I2C_ReadByte
  6291 ;;		_I2C_RepeatedStart
  6292 ;;		_I2C_Start
  6293 ;;		_I2C_Stop
  6294 ;;		_I2C_WriteByte
  6295 ;; This function is called by:
  6296 ;;		_main
  6297 ;; This function uses a non-reentrant model
  6298 ;;
  6299                           
  6300                           	psect	text32
  6301  0066D8                     __ptext32:
  6302                           	opt stack 0
  6303  0066D8                     _ES15007_Get_Serial:
  6304                           	opt stack 28
  6305                           
  6306                           ;ES15007.c: 20: union
  6307                           ;ES15007.c: 21: {
  6308                           ;ES15007.c: 22: uint16_t serial_16;
  6309                           ;ES15007.c: 23: uint8_t serial_databyte[2];
  6310                           ;ES15007.c: 24: }serial;
  6311                           ;ES15007.c: 26: I2C_Start();
  6312                           
  6313                           ;incstack = 0
  6314  0066D8  EC80  F032         	call	_I2C_Start	;wreg free
  6315                           
  6316                           ;ES15007.c: 27: I2C_WriteByte(0x20);
  6317  0066DC  0E20               	movlw	32
  6318  0066DE  ECFC  F032         	call	_I2C_WriteByte
  6319                           
  6320                           ;ES15007.c: 28: I2C_WriteByte(0x01);
  6321  0066E2  0E01               	movlw	1
  6322  0066E4  ECFC  F032         	call	_I2C_WriteByte
  6323                           
  6324                           ;ES15007.c: 29: I2C_RepeatedStart();
  6325  0066E8  EC7A  F032         	call	_I2C_RepeatedStart	;wreg free
  6326                           
  6327                           ;ES15007.c: 30: I2C_WriteByte(0x20 + 1);
  6328  0066EC  0E21               	movlw	33
  6329  0066EE  ECFC  F032         	call	_I2C_WriteByte
  6330                           
  6331                           ;ES15007.c: 31: serial.serial_databyte[0] = I2C_ReadByte(1);
  6332  0066F2  0E01               	movlw	1
  6333  0066F4  EC88  F033         	call	_I2C_ReadByte
  6334  0066F8  6E06               	movwf	ES15007_Get_Serial@serial,c
  6335                           
  6336                           ;ES15007.c: 32: serial.serial_databyte[1] = I2C_ReadByte(0);
  6337  0066FA  0E00               	movlw	0
  6338  0066FC  EC88  F033         	call	_I2C_ReadByte
  6339  006700  6E07               	movwf	ES15007_Get_Serial@serial+1,c
  6340                           
  6341                           ;ES15007.c: 33: I2C_Stop();
  6342  006702  EC86  F032         	call	_I2C_Stop	;wreg free
  6343                           
  6344                           ;ES15007.c: 35: return serial.serial_16;
  6345  006706  C006  F004         	movff	ES15007_Get_Serial@serial,?_ES15007_Get_Serial
  6346  00670A  C007  F005         	movff	ES15007_Get_Serial@serial+1,?_ES15007_Get_Serial+1
  6347  00670E  0012               	return		;funcret
  6348  006710                     __end_of_ES15007_Get_Serial:
  6349                           	opt stack 0
  6350                           tblptru	equ	0xFF8
  6351                           tblptrh	equ	0xFF7
  6352                           tblptrl	equ	0xFF6
  6353                           tablat	equ	0xFF5
  6354                           prodh	equ	0xFF4
  6355                           prodl	equ	0xFF3
  6356                           indf0	equ	0xFEF
  6357                           fsr0h	equ	0xFEA
  6358                           fsr0l	equ	0xFE9
  6359                           wreg	equ	0xFE8
  6360                           indf2	equ	0xFDF
  6361                           postinc2	equ	0xFDE
  6362                           postdec2	equ	0xFDD
  6363                           fsr2h	equ	0xFDA
  6364                           fsr2l	equ	0xFD9
  6365                           status	equ	0xFD8
  6366                           
  6367 ;; *************** function _I2C_WriteByte *****************
  6368 ;; Defined at:
  6369 ;;		line 98 in file "my_i2c.c"
  6370 ;; Parameters:    Size  Location     Type
  6371 ;;  data_out        1    wreg     unsigned char 
  6372 ;; Auto vars:     Size  Location     Type
  6373 ;;  data_out        1    1[COMRAM] unsigned char 
  6374 ;; Return value:  Size  Location     Type
  6375 ;;                  1    wreg      unsigned char 
  6376 ;; Registers used:
  6377 ;;		wreg, status,2, status,0, cstack
  6378 ;; Tracked objects:
  6379 ;;		On entry : 0/0
  6380 ;;		On exit  : 0/0
  6381 ;;		Unchanged: 0/0
  6382 ;; Data sizes:     COMRAM   BANK0   BANK1   BANK2   BANK3   BANK4   BANK5
  6383 ;;      Params:         0       0       0       0       0       0       0
  6384 ;;      Locals:         1       0       0       0       0       0       0
  6385 ;;      Temps:          0       0       0       0       0       0       0
  6386 ;;      Totals:         1       0       0       0       0       0       0
  6387 ;;Total ram usage:        1 bytes
  6388 ;; Hardware stack levels used:    1
  6389 ;; Hardware stack levels required when called:    1
  6390 ;; This function calls:
  6391 ;;		_I2C_Idle
  6392 ;; This function is called by:
  6393 ;;		_ES15007_Get_Serial
  6394 ;;		_ES15007_Get_Status
  6395 ;;		_ES15007_ReadPress
  6396 ;;		_ES15007_ReadTemp
  6397 ;; This function uses a non-reentrant model
  6398 ;;
  6399                           
  6400                           	psect	text33
  6401  0065F8                     __ptext33:
  6402                           	opt stack 0
  6403  0065F8                     _I2C_WriteByte:
  6404                           	opt stack 28
  6405                           
  6406                           ;incstack = 0
  6407                           ;I2C_WriteByte@data_out stored from wreg
  6408  0065F8  6E02               	movwf	I2C_WriteByte@data_out,c
  6409                           
  6410                           ;my_i2c.c: 100: I2C_Idle();
  6411  0065FA  EC8C  F032         	call	_I2C_Idle	;wreg free
  6412                           
  6413                           ;my_i2c.c: 102: SSPBUF = data_out;
  6414  0065FE  C002  FFC9         	movff	I2C_WriteByte@data_out,4041	;volatile
  6415                           
  6416                           ;my_i2c.c: 104: if(SSPCON1bits.WCOL)
  6417  006602  BEC6               	btfsc	4038,7,c	;volatile
  6418  006604  D00D               	goto	l151
  6419                           
  6420                           ;my_i2c.c: 108: else
  6421                           ;my_i2c.c: 109: {
  6422                           ;my_i2c.c: 110: if(((SSPCON1 & 0x0F) == 0x08) || ((SSPCON1 & 0x0F) == 0x0B))
  6423  006606  50C6               	movf	4038,w,c	;volatile
  6424  006608  0B0F               	andlw	15
  6425  00660A  0A08               	xorlw	8
  6426  00660C  E004               	bz	l156
  6427  00660E  50C6               	movf	4038,w,c	;volatile
  6428  006610  0B0F               	andlw	15
  6429  006612  0A0B               	xorlw	11
  6430  006614  E105               	bnz	l151
  6431  006616                     l156:
  6432  006616  B0C7               	btfsc	4039,0,c	;volatile
  6433  006618  D7FE               	goto	l156
  6434                           
  6435                           ;my_i2c.c: 114: I2C_Idle();
  6436  00661A  EC8C  F032         	call	_I2C_Idle	;wreg free
  6437                           
  6438                           ;my_i2c.c: 116: if(SSPCON2bits.ACKSTAT)
  6439  00661E  50C5               	movf	4037,w,c	;volatile
  6440  006620                     l151:
  6441  006620  0012               	return		;funcret
  6442  006622                     __end_of_I2C_WriteByte:
  6443                           	opt stack 0
  6444                           tblptru	equ	0xFF8
  6445                           tblptrh	equ	0xFF7
  6446                           tblptrl	equ	0xFF6
  6447                           tablat	equ	0xFF5
  6448                           prodh	equ	0xFF4
  6449                           prodl	equ	0xFF3
  6450                           indf0	equ	0xFEF
  6451                           fsr0h	equ	0xFEA
  6452                           fsr0l	equ	0xFE9
  6453                           wreg	equ	0xFE8
  6454                           indf2	equ	0xFDF
  6455                           postinc2	equ	0xFDE
  6456                           postdec2	equ	0xFDD
  6457                           fsr2h	equ	0xFDA
  6458                           fsr2l	equ	0xFD9
  6459                           status	equ	0xFD8
  6460                           
  6461 ;; *************** function _I2C_Stop *****************
  6462 ;; Defined at:
  6463 ;;		line 45 in file "my_i2c.c"
  6464 ;; Parameters:    Size  Location     Type
  6465 ;;		None
  6466 ;; Auto vars:     Size  Location     Type
  6467 ;;		None
  6468 ;; Return value:  Size  Location     Type
  6469 ;;		None               void
  6470 ;; Registers used:
  6471 ;;		wreg, status,2, status,0, cstack
  6472 ;; Tracked objects:
  6473 ;;		On entry : 0/0
  6474 ;;		On exit  : 0/0
  6475 ;;		Unchanged: 0/0
  6476 ;; Data sizes:     COMRAM   BANK0   BANK1   BANK2   BANK3   BANK4   BANK5
  6477 ;;      Params:         0       0       0       0       0       0       0
  6478 ;;      Locals:         0       0       0       0       0       0       0
  6479 ;;      Temps:          0       0       0       0       0       0       0
  6480 ;;      Totals:         0       0       0       0       0       0       0
  6481 ;;Total ram usage:        0 bytes
  6482 ;; Hardware stack levels used:    1
  6483 ;; Hardware stack levels required when called:    1
  6484 ;; This function calls:
  6485 ;;		_I2C_Idle
  6486 ;; This function is called by:
  6487 ;;		_ES15007_Get_Serial
  6488 ;;		_ES15007_Get_Status
  6489 ;;		_ES15007_ReadPress
  6490 ;;		_ES15007_ReadTemp
  6491 ;; This function uses a non-reentrant model
  6492 ;;
  6493                           
  6494                           	psect	text34
  6495  00650C                     __ptext34:
  6496                           	opt stack 0
  6497  00650C                     _I2C_Stop:
  6498                           	opt stack 28
  6499                           
  6500                           ;my_i2c.c: 47: I2C_Idle();
  6501                           
  6502                           ;incstack = 0
  6503  00650C  EC8C  F032         	call	_I2C_Idle	;wreg free
  6504                           
  6505                           ;my_i2c.c: 48: SSPCON2bits.PEN = 1;
  6506  006510  84C5               	bsf	4037,2,c	;volatile
  6507  006512                     l118:
  6508  006512  A4C5               	btfss	4037,2,c	;volatile
  6509  006514  0012               	return		;funcret
  6510  006516  D7FD               	goto	l118
  6511  006518                     __end_of_I2C_Stop:
  6512                           	opt stack 0
  6513                           tblptru	equ	0xFF8
  6514                           tblptrh	equ	0xFF7
  6515                           tblptrl	equ	0xFF6
  6516                           tablat	equ	0xFF5
  6517                           prodh	equ	0xFF4
  6518                           prodl	equ	0xFF3
  6519                           indf0	equ	0xFEF
  6520                           fsr0h	equ	0xFEA
  6521                           fsr0l	equ	0xFE9
  6522                           wreg	equ	0xFE8
  6523                           indf2	equ	0xFDF
  6524                           postinc2	equ	0xFDE
  6525                           postdec2	equ	0xFDD
  6526                           fsr2h	equ	0xFDA
  6527                           fsr2l	equ	0xFD9
  6528                           status	equ	0xFD8
  6529                           
  6530 ;; *************** function _I2C_Start *****************
  6531 ;; Defined at:
  6532 ;;		line 27 in file "my_i2c.c"
  6533 ;; Parameters:    Size  Location     Type
  6534 ;;		None
  6535 ;; Auto vars:     Size  Location     Type
  6536 ;;		None
  6537 ;; Return value:  Size  Location     Type
  6538 ;;		None               void
  6539 ;; Registers used:
  6540 ;;		wreg, status,2, status,0, cstack
  6541 ;; Tracked objects:
  6542 ;;		On entry : 0/0
  6543 ;;		On exit  : 0/0
  6544 ;;		Unchanged: 0/0
  6545 ;; Data sizes:     COMRAM   BANK0   BANK1   BANK2   BANK3   BANK4   BANK5
  6546 ;;      Params:         0       0       0       0       0       0       0
  6547 ;;      Locals:         0       0       0       0       0       0       0
  6548 ;;      Temps:          0       0       0       0       0       0       0
  6549 ;;      Totals:         0       0       0       0       0       0       0
  6550 ;;Total ram usage:        0 bytes
  6551 ;; Hardware stack levels used:    1
  6552 ;; Hardware stack levels required when called:    1
  6553 ;; This function calls:
  6554 ;;		_I2C_Idle
  6555 ;; This function is called by:
  6556 ;;		_ES15007_Get_Serial
  6557 ;;		_ES15007_Get_Status
  6558 ;;		_ES15007_ReadPress
  6559 ;;		_ES15007_ReadTemp
  6560 ;; This function uses a non-reentrant model
  6561 ;;
  6562                           
  6563                           	psect	text35
  6564  006500                     __ptext35:
  6565                           	opt stack 0
  6566  006500                     _I2C_Start:
  6567                           	opt stack 28
  6568                           
  6569                           ;my_i2c.c: 29: I2C_Idle();
  6570                           
  6571                           ;incstack = 0
  6572  006500  EC8C  F032         	call	_I2C_Idle	;wreg free
  6573                           
  6574                           ;my_i2c.c: 31: SSPCON2bits.SEN = 1;
  6575  006504  80C5               	bsf	4037,0,c	;volatile
  6576  006506                     l106:
  6577  006506  A0C5               	btfss	4037,0,c	;volatile
  6578  006508  0012               	return		;funcret
  6579  00650A  D7FD               	goto	l106
  6580  00650C                     __end_of_I2C_Start:
  6581                           	opt stack 0
  6582                           tblptru	equ	0xFF8
  6583                           tblptrh	equ	0xFF7
  6584                           tblptrl	equ	0xFF6
  6585                           tablat	equ	0xFF5
  6586                           prodh	equ	0xFF4
  6587                           prodl	equ	0xFF3
  6588                           indf0	equ	0xFEF
  6589                           fsr0h	equ	0xFEA
  6590                           fsr0l	equ	0xFE9
  6591                           wreg	equ	0xFE8
  6592                           indf2	equ	0xFDF
  6593                           postinc2	equ	0xFDE
  6594                           postdec2	equ	0xFDD
  6595                           fsr2h	equ	0xFDA
  6596                           fsr2l	equ	0xFD9
  6597                           status	equ	0xFD8
  6598                           
  6599 ;; *************** function _I2C_RepeatedStart *****************
  6600 ;; Defined at:
  6601 ;;		line 36 in file "my_i2c.c"
  6602 ;; Parameters:    Size  Location     Type
  6603 ;;		None
  6604 ;; Auto vars:     Size  Location     Type
  6605 ;;		None
  6606 ;; Return value:  Size  Location     Type
  6607 ;;		None               void
  6608 ;; Registers used:
  6609 ;;		wreg, status,2, status,0, cstack
  6610 ;; Tracked objects:
  6611 ;;		On entry : 0/0
  6612 ;;		On exit  : 0/0
  6613 ;;		Unchanged: 0/0
  6614 ;; Data sizes:     COMRAM   BANK0   BANK1   BANK2   BANK3   BANK4   BANK5
  6615 ;;      Params:         0       0       0       0       0       0       0
  6616 ;;      Locals:         0       0       0       0       0       0       0
  6617 ;;      Temps:          0       0       0       0       0       0       0
  6618 ;;      Totals:         0       0       0       0       0       0       0
  6619 ;;Total ram usage:        0 bytes
  6620 ;; Hardware stack levels used:    1
  6621 ;; Hardware stack levels required when called:    1
  6622 ;; This function calls:
  6623 ;;		_I2C_Idle
  6624 ;; This function is called by:
  6625 ;;		_ES15007_Get_Serial
  6626 ;;		_ES15007_Get_Status
  6627 ;;		_ES15007_ReadPress
  6628 ;;		_ES15007_ReadTemp
  6629 ;; This function uses a non-reentrant model
  6630 ;;
  6631                           
  6632                           	psect	text36
  6633  0064F4                     __ptext36:
  6634                           	opt stack 0
  6635  0064F4                     _I2C_RepeatedStart:
  6636                           	opt stack 28
  6637                           
  6638                           ;my_i2c.c: 38: I2C_Idle();
  6639                           
  6640                           ;incstack = 0
  6641  0064F4  EC8C  F032         	call	_I2C_Idle	;wreg free
  6642                           
  6643                           ;my_i2c.c: 40: SSPCON2bits.RSEN = 1;
  6644  0064F8  82C5               	bsf	4037,1,c	;volatile
  6645  0064FA                     l112:
  6646  0064FA  A2C5               	btfss	4037,1,c	;volatile
  6647  0064FC  0012               	return		;funcret
  6648  0064FE  D7FD               	goto	l112
  6649  006500                     __end_of_I2C_RepeatedStart:
  6650                           	opt stack 0
  6651                           tblptru	equ	0xFF8
  6652                           tblptrh	equ	0xFF7
  6653                           tblptrl	equ	0xFF6
  6654                           tablat	equ	0xFF5
  6655                           prodh	equ	0xFF4
  6656                           prodl	equ	0xFF3
  6657                           indf0	equ	0xFEF
  6658                           fsr0h	equ	0xFEA
  6659                           fsr0l	equ	0xFE9
  6660                           wreg	equ	0xFE8
  6661                           indf2	equ	0xFDF
  6662                           postinc2	equ	0xFDE
  6663                           postdec2	equ	0xFDD
  6664                           fsr2h	equ	0xFDA
  6665                           fsr2l	equ	0xFD9
  6666                           status	equ	0xFD8
  6667                           
  6668 ;; *************** function _I2C_ReadByte *****************
  6669 ;; Defined at:
  6670 ;;		line 63 in file "my_i2c.c"
  6671 ;; Parameters:    Size  Location     Type
  6672 ;;  acknowledge     1    wreg     unsigned char 
  6673 ;; Auto vars:     Size  Location     Type
  6674 ;;  acknowledge     1    1[COMRAM] unsigned char 
  6675 ;;  buffer_I2C      1    2[COMRAM] unsigned char 
  6676 ;; Return value:  Size  Location     Type
  6677 ;;                  1    wreg      unsigned char 
  6678 ;; Registers used:
  6679 ;;		wreg, status,2, status,0, cstack
  6680 ;; Tracked objects:
  6681 ;;		On entry : 0/0
  6682 ;;		On exit  : 0/0
  6683 ;;		Unchanged: 0/0
  6684 ;; Data sizes:     COMRAM   BANK0   BANK1   BANK2   BANK3   BANK4   BANK5
  6685 ;;      Params:         0       0       0       0       0       0       0
  6686 ;;      Locals:         2       0       0       0       0       0       0
  6687 ;;      Temps:          0       0       0       0       0       0       0
  6688 ;;      Totals:         2       0       0       0       0       0       0
  6689 ;;Total ram usage:        2 bytes
  6690 ;; Hardware stack levels used:    1
  6691 ;; Hardware stack levels required when called:    1
  6692 ;; This function calls:
  6693 ;;		_I2C_Idle
  6694 ;; This function is called by:
  6695 ;;		_ES15007_Get_Serial
  6696 ;;		_ES15007_Get_Status
  6697 ;;		_ES15007_ReadPress
  6698 ;;		_ES15007_ReadTemp
  6699 ;; This function uses a non-reentrant model
  6700 ;;
  6701                           
  6702                           	psect	text37
  6703  006710                     __ptext37:
  6704                           	opt stack 0
  6705  006710                     _I2C_ReadByte:
  6706                           	opt stack 28
  6707                           
  6708                           ;incstack = 0
  6709                           ;I2C_ReadByte@acknowledge stored from wreg
  6710  006710  6E02               	movwf	I2C_ReadByte@acknowledge,c
  6711                           
  6712                           ;my_i2c.c: 67: I2C_Idle();
  6713  006712  EC8C  F032         	call	_I2C_Idle	;wreg free
  6714                           
  6715                           ;my_i2c.c: 69: if(((SSPCON1 & 0x0F) == 0x08) || ((SSPCON1 & 0x0F) == 0x0B))
  6716  006716  50C6               	movf	4038,w,c	;volatile
  6717  006718  0B0F               	andlw	15
  6718  00671A  0A08               	xorlw	8
  6719  00671C  E004               	bz	l135
  6720  00671E  50C6               	movf	4038,w,c	;volatile
  6721  006720  0B0F               	andlw	15
  6722  006722  0A0B               	xorlw	11
  6723  006724  B4D8               	btfsc	status,2,c
  6724  006726                     l135:
  6725                           
  6726                           ;my_i2c.c: 70: {
  6727                           ;my_i2c.c: 71: SSPCON2bits.RCEN = 1;
  6728  006726  86C5               	bsf	4037,3,c	;volatile
  6729  006728                     l136:
  6730  006728  A0C7               	btfss	4039,0,c	;volatile
  6731  00672A  D7FE               	goto	l136
  6732                           
  6733                           ;my_i2c.c: 76: buffer_I2C = SSPBUF;
  6734  00672C  CFC9 F003          	movff	4041,I2C_ReadByte@buffer_I2C	;volatile
  6735                           
  6736                           ;my_i2c.c: 78: I2C_Idle();
  6737  006730  EC8C  F032         	call	_I2C_Idle	;wreg free
  6738                           
  6739                           ;my_i2c.c: 80: if(acknowledge == 1)
  6740  006734  0402               	decf	I2C_ReadByte@acknowledge,w,c
  6741  006736  E105               	bnz	l139
  6742                           
  6743                           ;my_i2c.c: 81: {
  6744                           ;my_i2c.c: 82: SSPCON2bits.ACKDT = 0;
  6745  006738  9AC5               	bcf	4037,5,c	;volatile
  6746                           
  6747                           ;my_i2c.c: 83: SSPCON2bits.ACKEN = 1;
  6748  00673A  88C5               	bsf	4037,4,c	;volatile
  6749  00673C                     l140:
  6750  00673C  A8C5               	btfss	4037,4,c	;volatile
  6751  00673E  D005               	goto	l2425
  6752  006740  D7FD               	goto	l140
  6753  006742                     l139:
  6754                           
  6755                           ;my_i2c.c: 87: else
  6756                           ;my_i2c.c: 88: {
  6757                           ;my_i2c.c: 89: SSPCON2bits.ACKDT = 1;
  6758  006742  8AC5               	bsf	4037,5,c	;volatile
  6759                           
  6760                           ;my_i2c.c: 90: SSPCON2bits.ACKEN = 1;
  6761  006744  88C5               	bsf	4037,4,c	;volatile
  6762  006746                     l144:
  6763  006746  B8C5               	btfsc	4037,4,c	;volatile
  6764  006748  D7FE               	goto	l144
  6765  00674A                     l2425:
  6766                           
  6767                           ;my_i2c.c: 93: }
  6768                           ;my_i2c.c: 95: return (buffer_I2C);
  6769  00674A  5003               	movf	I2C_ReadByte@buffer_I2C,w,c
  6770  00674C  0012               	return		;funcret
  6771  00674E                     __end_of_I2C_ReadByte:
  6772                           	opt stack 0
  6773                           tblptru	equ	0xFF8
  6774                           tblptrh	equ	0xFF7
  6775                           tblptrl	equ	0xFF6
  6776                           tablat	equ	0xFF5
  6777                           prodh	equ	0xFF4
  6778                           prodl	equ	0xFF3
  6779                           indf0	equ	0xFEF
  6780                           fsr0h	equ	0xFEA
  6781                           fsr0l	equ	0xFE9
  6782                           wreg	equ	0xFE8
  6783                           indf2	equ	0xFDF
  6784                           postinc2	equ	0xFDE
  6785                           postdec2	equ	0xFDD
  6786                           fsr2h	equ	0xFDA
  6787                           fsr2l	equ	0xFD9
  6788                           status	equ	0xFD8
  6789                           
  6790 ;; *************** function _I2C_Idle *****************
  6791 ;; Defined at:
  6792 ;;		line 52 in file "my_i2c.c"
  6793 ;; Parameters:    Size  Location     Type
  6794 ;;		None
  6795 ;; Auto vars:     Size  Location     Type
  6796 ;;		None
  6797 ;; Return value:  Size  Location     Type
  6798 ;;		None               void
  6799 ;; Registers used:
  6800 ;;		wreg, status,2, status,0
  6801 ;; Tracked objects:
  6802 ;;		On entry : 0/0
  6803 ;;		On exit  : 0/0
  6804 ;;		Unchanged: 0/0
  6805 ;; Data sizes:     COMRAM   BANK0   BANK1   BANK2   BANK3   BANK4   BANK5
  6806 ;;      Params:         0       0       0       0       0       0       0
  6807 ;;      Locals:         0       0       0       0       0       0       0
  6808 ;;      Temps:          1       0       0       0       0       0       0
  6809 ;;      Totals:         1       0       0       0       0       0       0
  6810 ;;Total ram usage:        1 bytes
  6811 ;; Hardware stack levels used:    1
  6812 ;; This function calls:
  6813 ;;		Nothing
  6814 ;; This function is called by:
  6815 ;;		_I2C_Start
  6816 ;;		_I2C_RepeatedStart
  6817 ;;		_I2C_Stop
  6818 ;;		_I2C_ReadByte
  6819 ;;		_I2C_WriteByte
  6820 ;; This function uses a non-reentrant model
  6821 ;;
  6822                           
  6823                           	psect	text38
  6824  006518                     __ptext38:
  6825                           	opt stack 0
  6826  006518                     _I2C_Idle:
  6827                           	opt stack 28
  6828  006518                     l2161:
  6829  006518  A4C7               	btfss	4039,2,c	;volatile
  6830  00651A  D003               	goto	u1770
  6831  00651C  6A01               	clrf	??_I2C_Idle& (0+255),c
  6832  00651E  2A01               	incf	??_I2C_Idle& (0+255),f,c
  6833  006520  D001               	goto	u1778
  6834  006522                     u1770:
  6835  006522  6A01               	clrf	??_I2C_Idle& (0+255),c
  6836  006524                     u1778:
  6837  006524  50C5               	movf	4037,w,c	;volatile
  6838  006526  0B1F               	andlw	31
  6839  006528  1001               	iorwf	??_I2C_Idle,w,c
  6840  00652A  B4D8               	btfsc	status,2,c
  6841  00652C  0012               	return		;funcret
  6842  00652E  D7F4               	goto	l2161
  6843  006530                     __end_of_I2C_Idle:
  6844                           	opt stack 0
  6845                           tblptru	equ	0xFF8
  6846                           tblptrh	equ	0xFF7
  6847                           tblptrl	equ	0xFF6
  6848                           tablat	equ	0xFF5
  6849                           prodh	equ	0xFF4
  6850                           prodl	equ	0xFF3
  6851                           indf0	equ	0xFEF
  6852                           fsr0h	equ	0xFEA
  6853                           fsr0l	equ	0xFE9
  6854                           wreg	equ	0xFE8
  6855                           indf2	equ	0xFDF
  6856                           postinc2	equ	0xFDE
  6857                           postdec2	equ	0xFDD
  6858                           fsr2h	equ	0xFDA
  6859                           fsr2l	equ	0xFD9
  6860                           status	equ	0xFD8
  6861                           
  6862 ;; *************** function _Delay_ms *****************
  6863 ;; Defined at:
  6864 ;;		line 11 in file "my_delays.c"
  6865 ;; Parameters:    Size  Location     Type
  6866 ;;  count           2    0[COMRAM] unsigned int 
  6867 ;; Auto vars:     Size  Location     Type
  6868 ;;  i               2    3[COMRAM] unsigned int 
  6869 ;; Return value:  Size  Location     Type
  6870 ;;		None               void
  6871 ;; Registers used:
  6872 ;;		wreg, status,2, status,0
  6873 ;; Tracked objects:
  6874 ;;		On entry : 0/0
  6875 ;;		On exit  : 0/0
  6876 ;;		Unchanged: 0/0
  6877 ;; Data sizes:     COMRAM   BANK0   BANK1   BANK2   BANK3   BANK4   BANK5
  6878 ;;      Params:         2       0       0       0       0       0       0
  6879 ;;      Locals:         2       0       0       0       0       0       0
  6880 ;;      Temps:          1       0       0       0       0       0       0
  6881 ;;      Totals:         5       0       0       0       0       0       0
  6882 ;;Total ram usage:        5 bytes
  6883 ;; Hardware stack levels used:    1
  6884 ;; This function calls:
  6885 ;;		Nothing
  6886 ;; This function is called by:
  6887 ;;		_main
  6888 ;; This function uses a non-reentrant model
  6889 ;;
  6890                           
  6891                           	psect	text39
  6892  006586                     __ptext39:
  6893                           	opt stack 0
  6894  006586                     _Delay_ms:
  6895                           	opt stack 30
  6896                           
  6897                           ;my_delays.c: 13: unsigned int i;
  6898                           ;my_delays.c: 15: for(i = 0; i < count; i ++)
  6899                           
  6900                           ;incstack = 0
  6901  006586  6A04               	clrf	Delay_ms@i,c
  6902  006588  6A05               	clrf	Delay_ms@i+1,c
  6903  00658A  D009               	goto	l5
  6904  00658C                     l2793:
  6905                           
  6906                           ;my_delays.c: 16: {
  6907                           ;my_delays.c: 17: _delay((unsigned long)((1)*(8000000/4000.0)));
  6908  00658C  0E03               	movlw	3
  6909  00658E  6E03               	movwf	??_Delay_ms& (0+255),c
  6910  006590  0E98               	movlw	152
  6911  006592                     u3387:
  6912  006592  2EE8               	decfsz	wreg,f,c
  6913  006594  D7FE               	goto	u3387
  6914  006596  2E03               	decfsz	??_Delay_ms& (0+255),f,c
  6915  006598  D7FC               	goto	u3387
  6916  00659A  4A04               	infsnz	Delay_ms@i,f,c
  6917  00659C  2A05               	incf	Delay_ms@i+1,f,c
  6918  00659E                     l5:
  6919  00659E  5001               	movf	Delay_ms@count,w,c
  6920  0065A0  5C04               	subwf	Delay_ms@i,w,c
  6921  0065A2  5002               	movf	Delay_ms@count+1,w,c
  6922  0065A4  5805               	subwfb	Delay_ms@i+1,w,c
  6923  0065A6  B0D8               	btfsc	status,0,c
  6924  0065A8  0012               	return		;funcret
  6925  0065AA  D7F0               	goto	l2793
  6926  0065AC                     __end_of_Delay_ms:
  6927                           	opt stack 0
  6928                           tblptru	equ	0xFF8
  6929                           tblptrh	equ	0xFF7
  6930                           tblptrl	equ	0xFF6
  6931                           tablat	equ	0xFF5
  6932                           prodh	equ	0xFF4
  6933                           prodl	equ	0xFF3
  6934                           indf0	equ	0xFEF
  6935                           fsr0h	equ	0xFEA
  6936                           fsr0l	equ	0xFE9
  6937                           wreg	equ	0xFE8
  6938                           indf2	equ	0xFDF
  6939                           postinc2	equ	0xFDE
  6940                           postdec2	equ	0xFDD
  6941                           fsr2h	equ	0xFDA
  6942                           fsr2l	equ	0xFD9
  6943                           status	equ	0xFD8
  6944                           tblptru	equ	0xFF8
  6945                           tblptrh	equ	0xFF7
  6946                           tblptrl	equ	0xFF6
  6947                           tablat	equ	0xFF5
  6948                           prodh	equ	0xFF4
  6949                           prodl	equ	0xFF3
  6950                           indf0	equ	0xFEF
  6951                           fsr0h	equ	0xFEA
  6952                           fsr0l	equ	0xFE9
  6953                           wreg	equ	0xFE8
  6954                           indf2	equ	0xFDF
  6955                           postinc2	equ	0xFDE
  6956                           postdec2	equ	0xFDD
  6957                           fsr2h	equ	0xFDA
  6958                           fsr2l	equ	0xFD9
  6959                           status	equ	0xFD8
  6960                           
  6961                           	psect	rparam
  6962  0000                     tblptru	equ	0xFF8
  6963                           tblptrh	equ	0xFF7
  6964                           tblptrl	equ	0xFF6
  6965                           tablat	equ	0xFF5
  6966                           prodh	equ	0xFF4
  6967                           prodl	equ	0xFF3
  6968                           indf0	equ	0xFEF
  6969                           fsr0h	equ	0xFEA
  6970                           fsr0l	equ	0xFE9
  6971                           wreg	equ	0xFE8
  6972                           indf2	equ	0xFDF
  6973                           postinc2	equ	0xFDE
  6974                           postdec2	equ	0xFDD
  6975                           fsr2h	equ	0xFDA
  6976                           fsr2l	equ	0xFD9
  6977                           status	equ	0xFD8
  6978                           tblptru	equ	0xFF8
  6979                           tblptrh	equ	0xFF7
  6980                           tblptrl	equ	0xFF6
  6981                           tablat	equ	0xFF5
  6982                           prodh	equ	0xFF4
  6983                           prodl	equ	0xFF3
  6984                           indf0	equ	0xFEF
  6985                           fsr0h	equ	0xFEA
  6986                           fsr0l	equ	0xFE9
  6987                           wreg	equ	0xFE8
  6988                           indf2	equ	0xFDF
  6989                           postinc2	equ	0xFDE
  6990                           postdec2	equ	0xFDD
  6991                           fsr2h	equ	0xFDA
  6992                           fsr2l	equ	0xFD9
  6993                           status	equ	0xFD8


Data Sizes:
    Strings     127
    Constant    144
    Data        0
    BSS         0
    Persistent  0
    Stack       0

Auto Spaces:
    Space          Size  Autos    Used
    COMRAM          127    127     127
    BANK0           128     20      20
    BANK1           256      0       0
    BANK2           256      0       0
    BANK3           256      0       0
    BANK4           256      0       0
    BANK5           256      0       0

Pointer List with Targets:

    sprintf@f	PTR const unsigned char  size(2) Largest target is 27
		 -> STR_6(CODE[27]), STR_5(CODE[25]), STR_4(CODE[18]), STR_3(CODE[18]), 

    sprintf@sp	PTR unsigned char  size(1) Largest target is 20
		 -> main@aux(BANK0[20]), 

    sprintf@ap	PTR void [1] size(1) Largest target is 2
		 -> ?_sprintf(COMRAM[2]), 

    putrsserial@data	PTR const unsigned char  size(2) Largest target is 25
		 -> main@aux(BANK0[20]), STR_2(CODE[14]), STR_1(CODE[25]), 


Critical Paths under _main in COMRAM

    _main->_sprintf
    _sprintf->_ES15007_ReadPress
    _scale->___flmul
    ___awdiv->___awmod
    _fround->___flmul
    ___lbdiv->___lbmod
    ___lltofl->___flpack
    ___llmod->___lldiv
    ___fltol->_scale
    ___flsub->___fladd
    _putrsserial->_writeserial
    _ES15007_ReadTemp->___fldiv
    ___lwtofl->___flpack
    ___flmul->___awdiv
    ___flmul->___lwtofl
    ___fladd->_fround
    _ES15007_ReadPress->___fldiv
    ___fldiv->___fladd
    ___altofl->___flpack
    _ES15007_Get_Status->_I2C_ReadByte
    _ES15007_Get_Serial->_I2C_ReadByte
    _I2C_WriteByte->_I2C_Idle
    _I2C_Stop->_I2C_Idle
    _I2C_Start->_I2C_Idle
    _I2C_RepeatedStart->_I2C_Idle
    _I2C_ReadByte->_I2C_Idle

Critical Paths under _main in BANK0

    None.

Critical Paths under _main in BANK1

    None.

Critical Paths under _main in BANK2

    None.

Critical Paths under _main in BANK3

    None.

Critical Paths under _main in BANK4

    None.

Critical Paths under _main in BANK5

    None.

Call Graph Tables:

 ---------------------------------------------------------------------------------
 (Depth) Function   	        Calls       Base Space   Used Autos Params    Refs
 ---------------------------------------------------------------------------------
 (0) _main                                                31    31      0   47440
                                            126 COMRAM     1     1      0
                                              0 BANK0     20    20      0
                           _Delay_ms
                 _ES15007_Get_Serial
                 _ES15007_Get_Status
                  _ES15007_ReadPress
                   _ES15007_ReadTemp
                          _I2C_Close
                           _I2C_Init
                        _putrsserial
                            _sprintf
 ---------------------------------------------------------------------------------
 (1) _sprintf                                             43    37      6   30582
                                             89 COMRAM    37    31      6
                 _ES15007_Get_Serial (ARG)
                 _ES15007_Get_Status (ARG)
                  _ES15007_ReadPress (ARG)
                   _ES15007_ReadTemp (ARG)
                            ___awdiv
                            ___fladd
                             ___flge
                            ___flmul
                            ___flneg
                            ___flsub
                            ___fltol
                            ___lldiv
                            ___llmod
                           ___lltofl
                             ___wmul
                         __div_to_l_
                        __tdiv_to_l_
                             _fround
                            _isdigit
                              _scale
 ---------------------------------------------------------------------------------
 (2) _scale                                               13     9      4    6246
                                             29 COMRAM     9     5      4
                            ___awdiv
                            ___awmod
                            ___flmul
 ---------------------------------------------------------------------------------
 (3) ___awmod                                              6     2      4     932
                                              0 COMRAM     6     2      4
 ---------------------------------------------------------------------------------
 (3) ___awdiv                                              8     4      4    1042
                                              6 COMRAM     8     4      4
                            ___awmod (ARG)
 ---------------------------------------------------------------------------------
 (2) _isdigit                                              3     3      0      68
                                              0 COMRAM     3     3      0
 ---------------------------------------------------------------------------------
 (2) _fround                                              21    17      4    4713
                                             29 COMRAM    17    13      4
                            ___flmul
                            ___lbdiv
                            ___lbmod
 ---------------------------------------------------------------------------------
 (3) ___lbmod                                              4     3      1     318
                                              0 COMRAM     4     3      1
 ---------------------------------------------------------------------------------
 (3) ___lbdiv                                              4     3      1     321
                                              4 COMRAM     4     3      1
                            ___lbmod (ARG)
 ---------------------------------------------------------------------------------
 (2) __tdiv_to_l_                                         17     9      8     409
                                              0 COMRAM    17     9      8
 ---------------------------------------------------------------------------------
 (2) __div_to_l_                                          14     6      8     409
                                              0 COMRAM    14     6      8
 ---------------------------------------------------------------------------------
 (2) ___wmul                                               6     2      4     477
                                              0 COMRAM     6     2      4
 ---------------------------------------------------------------------------------
 (2) ___lltofl                                             4     0      4    1860
                                             10 COMRAM     4     0      4
                           ___flpack
 ---------------------------------------------------------------------------------
 (2) ___llmod                                              9     1      8     583
                                             13 COMRAM     9     1      8
                            ___lldiv (ARG)
 ---------------------------------------------------------------------------------
 (2) ___lldiv                                             13     5      8     480
                                              0 COMRAM    13     5      8
 ---------------------------------------------------------------------------------
 (2) ___fltol                                             10     6      4     388
                                             38 COMRAM    10     6      4
                            ___flmul (ARG)
                              _scale (ARG)
 ---------------------------------------------------------------------------------
 (2) ___flsub                                              8     0      8    3276
                                             58 COMRAM     8     0      8
                            ___fladd
                           ___lltofl (ARG)
 ---------------------------------------------------------------------------------
 (2) ___flneg                                              4     0      4      98
                                              0 COMRAM     4     0      4
 ---------------------------------------------------------------------------------
 (2) ___flge                                               8     0      8     454
                                              0 COMRAM     8     0      8
 ---------------------------------------------------------------------------------
 (1) _putrsserial                                          4     2      2     384
                                              1 COMRAM     4     2      2
                        _writeserial
 ---------------------------------------------------------------------------------
 (2) _writeserial                                          1     1      0      22
                                              0 COMRAM     1     1      0
 ---------------------------------------------------------------------------------
 (1) _I2C_Init                                             1     1      0      22
                                              0 COMRAM     1     1      0
 ---------------------------------------------------------------------------------
 (1) _I2C_Close                                            0     0      0       0
 ---------------------------------------------------------------------------------
 (1) _ES15007_ReadTemp                                    12     8      4   11343
                                             73 COMRAM    12     8      4
                       _I2C_ReadByte
                  _I2C_RepeatedStart
                          _I2C_Start
                           _I2C_Stop
                      _I2C_WriteByte
                            ___fladd
                            ___fldiv
                            ___flmul
                           ___lwtofl
 ---------------------------------------------------------------------------------
 (2) ___lwtofl                                             4     0      4    1913
                                             10 COMRAM     4     0      4
                           ___flpack
 ---------------------------------------------------------------------------------
 (3) ___flmul                                             15     7      8    3783
                                             14 COMRAM    15     7      8
                            ___awdiv (ARG)
                            ___awmod (ARG)
                           ___flpack
                            ___lbdiv (ARG)
                            ___lbmod (ARG)
                           ___lwtofl (ARG)
 ---------------------------------------------------------------------------------
 (3) ___fladd                                             12     4      8    3023
                                             46 COMRAM    12     4      8
                            ___flmul (ARG)
                           ___flpack
                           ___lwtofl (ARG)
                             _fround (ARG)
 ---------------------------------------------------------------------------------
 (1) _ES15007_ReadPress                                   16    12      4    4593
                                             73 COMRAM    16    12      4
                       _I2C_ReadByte
                  _I2C_RepeatedStart
                          _I2C_Start
                           _I2C_Stop
                      _I2C_WriteByte
                           ___altofl
                            ___fldiv
 ---------------------------------------------------------------------------------
 (2) ___fldiv                                             15     7      8    2438
                                             58 COMRAM    15     7      8
                           ___altofl (ARG)
                            ___fladd (ARG)
                            ___flmul (ARG)
                           ___flpack
                           ___lwtofl (ARG)
 ---------------------------------------------------------------------------------
 (2) ___altofl                                             5     1      4    1969
                                             10 COMRAM     5     1      4
                           ___flpack
 ---------------------------------------------------------------------------------
 (4) ___flpack                                            10     4      6    1785
                                              0 COMRAM    10     4      6
 ---------------------------------------------------------------------------------
 (1) _ES15007_Get_Status                                   1     1      0      92
                                              3 COMRAM     1     1      0
                       _I2C_ReadByte
                  _I2C_RepeatedStart
                          _I2C_Start
                           _I2C_Stop
                      _I2C_WriteByte
 ---------------------------------------------------------------------------------
 (1) _ES15007_Get_Serial                                   4     2      2     115
                                              3 COMRAM     4     2      2
                       _I2C_ReadByte
                  _I2C_RepeatedStart
                          _I2C_Start
                           _I2C_Stop
                      _I2C_WriteByte
 ---------------------------------------------------------------------------------
 (2) _I2C_WriteByte                                        1     1      0      22
                                              1 COMRAM     1     1      0
                           _I2C_Idle
 ---------------------------------------------------------------------------------
 (2) _I2C_Stop                                             0     0      0       0
                           _I2C_Idle
 ---------------------------------------------------------------------------------
 (2) _I2C_Start                                            0     0      0       0
                           _I2C_Idle
 ---------------------------------------------------------------------------------
 (2) _I2C_RepeatedStart                                    0     0      0       0
                           _I2C_Idle
 ---------------------------------------------------------------------------------
 (2) _I2C_ReadByte                                         2     2      0      46
                                              1 COMRAM     2     2      0
                           _I2C_Idle
 ---------------------------------------------------------------------------------
 (3) _I2C_Idle                                             1     1      0       0
                                              0 COMRAM     1     1      0
 ---------------------------------------------------------------------------------
 (1) _Delay_ms                                             5     3      2      99
                                              0 COMRAM     5     3      2
 ---------------------------------------------------------------------------------
 Estimated maximum stack depth 4
 ---------------------------------------------------------------------------------

 Call Graph Graphs:

 _main (ROOT)
   _Delay_ms
   _ES15007_Get_Serial
     _I2C_ReadByte
       _I2C_Idle
     _I2C_RepeatedStart
       _I2C_Idle
     _I2C_Start
       _I2C_Idle
     _I2C_Stop
       _I2C_Idle
     _I2C_WriteByte
       _I2C_Idle
   _ES15007_Get_Status
     _I2C_ReadByte
       _I2C_Idle
     _I2C_RepeatedStart
       _I2C_Idle
     _I2C_Start
       _I2C_Idle
     _I2C_Stop
       _I2C_Idle
     _I2C_WriteByte
       _I2C_Idle
   _ES15007_ReadPress
     _I2C_ReadByte
       _I2C_Idle
     _I2C_RepeatedStart
       _I2C_Idle
     _I2C_Start
       _I2C_Idle
     _I2C_Stop
       _I2C_Idle
     _I2C_WriteByte
       _I2C_Idle
     ___altofl
       ___flpack
     ___fldiv
       ___altofl (ARG)
         ___flpack
       ___fladd (ARG)
         ___flmul (ARG)
           ___awdiv (ARG)
             ___awmod (ARG)
           ___awmod (ARG)
           ___flpack (ARG)
           ___lbdiv (ARG)
             ___lbmod (ARG)
           ___lbmod (ARG)
           ___lwtofl (ARG)
             ___flpack
         ___flpack (ARG)
         ___lwtofl (ARG)
           ___flpack
         _fround (ARG)
           ___flmul
             ___awdiv (ARG)
               ___awmod (ARG)
             ___awmod (ARG)
             ___flpack (ARG)
             ___lbdiv (ARG)
               ___lbmod (ARG)
             ___lbmod (ARG)
             ___lwtofl (ARG)
               ___flpack
           ___lbdiv
             ___lbmod (ARG)
           ___lbmod
       ___flmul (ARG)
         ___awdiv (ARG)
           ___awmod (ARG)
         ___awmod (ARG)
         ___flpack (ARG)
         ___lbdiv (ARG)
           ___lbmod (ARG)
         ___lbmod (ARG)
         ___lwtofl (ARG)
           ___flpack
       ___flpack (ARG)
       ___lwtofl (ARG)
         ___flpack
   _ES15007_ReadTemp
     _I2C_ReadByte
       _I2C_Idle
     _I2C_RepeatedStart
       _I2C_Idle
     _I2C_Start
       _I2C_Idle
     _I2C_Stop
       _I2C_Idle
     _I2C_WriteByte
       _I2C_Idle
     ___fladd
       ___flmul (ARG)
         ___awdiv (ARG)
           ___awmod (ARG)
         ___awmod (ARG)
         ___flpack (ARG)
         ___lbdiv (ARG)
           ___lbmod (ARG)
         ___lbmod (ARG)
         ___lwtofl (ARG)
           ___flpack
       ___flpack (ARG)
       ___lwtofl (ARG)
         ___flpack
       _fround (ARG)
         ___flmul
           ___awdiv (ARG)
             ___awmod (ARG)
           ___awmod (ARG)
           ___flpack (ARG)
           ___lbdiv (ARG)
             ___lbmod (ARG)
           ___lbmod (ARG)
           ___lwtofl (ARG)
             ___flpack
         ___lbdiv
           ___lbmod (ARG)
         ___lbmod
     ___fldiv
       ___altofl (ARG)
         ___flpack
       ___fladd (ARG)
         ___flmul (ARG)
           ___awdiv (ARG)
             ___awmod (ARG)
           ___awmod (ARG)
           ___flpack (ARG)
           ___lbdiv (ARG)
             ___lbmod (ARG)
           ___lbmod (ARG)
           ___lwtofl (ARG)
             ___flpack
         ___flpack (ARG)
         ___lwtofl (ARG)
           ___flpack
         _fround (ARG)
           ___flmul
             ___awdiv (ARG)
               ___awmod (ARG)
             ___awmod (ARG)
             ___flpack (ARG)
             ___lbdiv (ARG)
               ___lbmod (ARG)
             ___lbmod (ARG)
             ___lwtofl (ARG)
               ___flpack
           ___lbdiv
             ___lbmod (ARG)
           ___lbmod
       ___flmul (ARG)
         ___awdiv (ARG)
           ___awmod (ARG)
         ___awmod (ARG)
         ___flpack (ARG)
         ___lbdiv (ARG)
           ___lbmod (ARG)
         ___lbmod (ARG)
         ___lwtofl (ARG)
           ___flpack
       ___flpack (ARG)
       ___lwtofl (ARG)
         ___flpack
     ___flmul
       ___awdiv (ARG)
         ___awmod (ARG)
       ___awmod (ARG)
       ___flpack (ARG)
       ___lbdiv (ARG)
         ___lbmod (ARG)
       ___lbmod (ARG)
       ___lwtofl (ARG)
         ___flpack
     ___lwtofl
       ___flpack
   _I2C_Close
   _I2C_Init
   _putrsserial
     _writeserial
   _sprintf
     _ES15007_Get_Serial (ARG)
       _I2C_ReadByte
         _I2C_Idle
       _I2C_RepeatedStart
         _I2C_Idle
       _I2C_Start
         _I2C_Idle
       _I2C_Stop
         _I2C_Idle
       _I2C_WriteByte
         _I2C_Idle
     _ES15007_Get_Status (ARG)
       _I2C_ReadByte
         _I2C_Idle
       _I2C_RepeatedStart
         _I2C_Idle
       _I2C_Start
         _I2C_Idle
       _I2C_Stop
         _I2C_Idle
       _I2C_WriteByte
         _I2C_Idle
     _ES15007_ReadPress (ARG)
       _I2C_ReadByte
         _I2C_Idle
       _I2C_RepeatedStart
         _I2C_Idle
       _I2C_Start
         _I2C_Idle
       _I2C_Stop
         _I2C_Idle
       _I2C_WriteByte
         _I2C_Idle
       ___altofl
         ___flpack
       ___fldiv
         ___altofl (ARG)
           ___flpack
         ___fladd (ARG)
           ___flmul (ARG)
             ___awdiv (ARG)
               ___awmod (ARG)
             ___awmod (ARG)
             ___flpack (ARG)
             ___lbdiv (ARG)
               ___lbmod (ARG)
             ___lbmod (ARG)
             ___lwtofl (ARG)
               ___flpack
           ___flpack (ARG)
           ___lwtofl (ARG)
             ___flpack
           _fround (ARG)
             ___flmul
               ___awdiv (ARG)
                 ___awmod (ARG)
               ___awmod (ARG)
               ___flpack (ARG)
               ___lbdiv (ARG)
                 ___lbmod (ARG)
               ___lbmod (ARG)
               ___lwtofl (ARG)
                 ___flpack
             ___lbdiv
               ___lbmod (ARG)
             ___lbmod
         ___flmul (ARG)
           ___awdiv (ARG)
             ___awmod (ARG)
           ___awmod (ARG)
           ___flpack (ARG)
           ___lbdiv (ARG)
             ___lbmod (ARG)
           ___lbmod (ARG)
           ___lwtofl (ARG)
             ___flpack
         ___flpack (ARG)
         ___lwtofl (ARG)
           ___flpack
     _ES15007_ReadTemp (ARG)
       _I2C_ReadByte
         _I2C_Idle
       _I2C_RepeatedStart
         _I2C_Idle
       _I2C_Start
         _I2C_Idle
       _I2C_Stop
         _I2C_Idle
       _I2C_WriteByte
         _I2C_Idle
       ___fladd
         ___flmul (ARG)
           ___awdiv (ARG)
             ___awmod (ARG)
           ___awmod (ARG)
           ___flpack (ARG)
           ___lbdiv (ARG)
             ___lbmod (ARG)
           ___lbmod (ARG)
           ___lwtofl (ARG)
             ___flpack
         ___flpack (ARG)
         ___lwtofl (ARG)
           ___flpack
         _fround (ARG)
           ___flmul
             ___awdiv (ARG)
               ___awmod (ARG)
             ___awmod (ARG)
             ___flpack (ARG)
             ___lbdiv (ARG)
               ___lbmod (ARG)
             ___lbmod (ARG)
             ___lwtofl (ARG)
               ___flpack
           ___lbdiv
             ___lbmod (ARG)
           ___lbmod
       ___fldiv
         ___altofl (ARG)
           ___flpack
         ___fladd (ARG)
           ___flmul (ARG)
             ___awdiv (ARG)
               ___awmod (ARG)
             ___awmod (ARG)
             ___flpack (ARG)
             ___lbdiv (ARG)
               ___lbmod (ARG)
             ___lbmod (ARG)
             ___lwtofl (ARG)
               ___flpack
           ___flpack (ARG)
           ___lwtofl (ARG)
             ___flpack
           _fround (ARG)
             ___flmul
               ___awdiv (ARG)
                 ___awmod (ARG)
               ___awmod (ARG)
               ___flpack (ARG)
               ___lbdiv (ARG)
                 ___lbmod (ARG)
               ___lbmod (ARG)
               ___lwtofl (ARG)
                 ___flpack
             ___lbdiv
               ___lbmod (ARG)
             ___lbmod
         ___flmul (ARG)
           ___awdiv (ARG)
             ___awmod (ARG)
           ___awmod (ARG)
           ___flpack (ARG)
           ___lbdiv (ARG)
             ___lbmod (ARG)
           ___lbmod (ARG)
           ___lwtofl (ARG)
             ___flpack
         ___flpack (ARG)
         ___lwtofl (ARG)
           ___flpack
       ___flmul
         ___awdiv (ARG)
           ___awmod (ARG)
         ___awmod (ARG)
         ___flpack (ARG)
         ___lbdiv (ARG)
           ___lbmod (ARG)
         ___lbmod (ARG)
         ___lwtofl (ARG)
           ___flpack
       ___lwtofl
         ___flpack
     ___awdiv (ARG)
       ___awmod (ARG)
     ___fladd (ARG)
       ___flmul (ARG)
         ___awdiv (ARG)
           ___awmod (ARG)
         ___awmod (ARG)
         ___flpack (ARG)
         ___lbdiv (ARG)
           ___lbmod (ARG)
         ___lbmod (ARG)
         ___lwtofl (ARG)
           ___flpack
       ___flpack (ARG)
       ___lwtofl (ARG)
         ___flpack
       _fround (ARG)
         ___flmul
           ___awdiv (ARG)
             ___awmod (ARG)
           ___awmod (ARG)
           ___flpack (ARG)
           ___lbdiv (ARG)
             ___lbmod (ARG)
           ___lbmod (ARG)
           ___lwtofl (ARG)
             ___flpack
         ___lbdiv
           ___lbmod (ARG)
         ___lbmod
     ___flge (ARG)
     ___flmul (ARG)
       ___awdiv (ARG)
         ___awmod (ARG)
       ___awmod (ARG)
       ___flpack (ARG)
       ___lbdiv (ARG)
         ___lbmod (ARG)
       ___lbmod (ARG)
       ___lwtofl (ARG)
         ___flpack
     ___flneg (ARG)
     ___flsub (ARG)
       ___fladd
         ___flmul (ARG)
           ___awdiv (ARG)
             ___awmod (ARG)
           ___awmod (ARG)
           ___flpack (ARG)
           ___lbdiv (ARG)
             ___lbmod (ARG)
           ___lbmod (ARG)
           ___lwtofl (ARG)
             ___flpack
         ___flpack (ARG)
         ___lwtofl (ARG)
           ___flpack
         _fround (ARG)
           ___flmul
             ___awdiv (ARG)
               ___awmod (ARG)
             ___awmod (ARG)
             ___flpack (ARG)
             ___lbdiv (ARG)
               ___lbmod (ARG)
             ___lbmod (ARG)
             ___lwtofl (ARG)
               ___flpack
           ___lbdiv
             ___lbmod (ARG)
           ___lbmod
       ___lltofl (ARG)
         ___flpack
     ___fltol (ARG)
       ___flmul (ARG)
         ___awdiv (ARG)
           ___awmod (ARG)
         ___awmod (ARG)
         ___flpack (ARG)
         ___lbdiv (ARG)
           ___lbmod (ARG)
         ___lbmod (ARG)
         ___lwtofl (ARG)
           ___flpack
       _scale (ARG)
         ___awdiv
           ___awmod (ARG)
         ___awmod
         ___flmul
           ___awdiv (ARG)
             ___awmod (ARG)
           ___awmod (ARG)
           ___flpack (ARG)
           ___lbdiv (ARG)
             ___lbmod (ARG)
           ___lbmod (ARG)
           ___lwtofl (ARG)
             ___flpack
     ___lldiv (ARG)
     ___llmod (ARG)
       ___lldiv (ARG)
     ___lltofl (ARG)
       ___flpack
     ___wmul (ARG)
     __div_to_l_ (ARG)
     __tdiv_to_l_ (ARG)
     _fround (ARG)
       ___flmul
         ___awdiv (ARG)
           ___awmod (ARG)
         ___awmod (ARG)
         ___flpack (ARG)
         ___lbdiv (ARG)
           ___lbmod (ARG)
         ___lbmod (ARG)
         ___lwtofl (ARG)
           ___flpack
       ___lbdiv
         ___lbmod (ARG)
       ___lbmod
     _isdigit (ARG)
     _scale (ARG)
       ___awdiv
         ___awmod (ARG)
       ___awmod
       ___flmul
         ___awdiv (ARG)
           ___awmod (ARG)
         ___awmod (ARG)
         ___flpack (ARG)
         ___lbdiv (ARG)
           ___lbmod (ARG)
         ___lbmod (ARG)
         ___lwtofl (ARG)
           ___flpack

 Address spaces:
Name               Size   Autos  Total    Cost      Usage
BITCOMRAM           7F      0       0       0        0.0%
EEDATA             100      0       0       0        0.0%
NULL                 0      0       0       0        0.0%
CODE                 0      0       0       0        0.0%
COMRAM              7F     7F      7F       1      100.0%
STACK                0      0       0       2        0.0%
DATA                 0      0       0       3        0.0%
BITBANK0            80      0       0       4        0.0%
BANK0               80     14      14       5       15.6%
BITBANK1           100      0       0       6        0.0%
BANK1              100      0       0       7        0.0%
BITBANK2           100      0       0       8        0.0%
BANK2              100      0       0       9        0.0%
BITBANK3           100      0       0      10        0.0%
BANK3              100      0       0      11        0.0%
BITBANK4           100      0       0      12        0.0%
BANK4              100      0       0      13        0.0%
BANK5              100      0       0      14        0.0%
ABS                  0      0       0      15        0.0%
BITBANK5           100      0       0      16        0.0%
BIGRAM             5FF      0       0      17        0.0%
BITSFR               0      0       0      40        0.0%
SFR                  0      0       0      40        0.0%


Microchip Technology PIC18 Macro Assembler V1.34 build -361300703 
Symbol Table                                                                                   Fri May 31 12:39:01 2019

           __size_of_I2C_Close 0004                              l5 659E                  ___altofl@sign 000F  
                 ___fldiv@cntr 0047                   ___fldiv@sign 0049             __size_of_I2C_Start 000C  
                           PL2 75F2                             PL4 760E                             PL6 7E00  
                           PL8 762A                    _SSPSTATbits 000FC7                   ___awdiv@sign 000C  
          ___wmul@multiplicand 0003                    __CFG_BORV$3 000000                   __CFG_CP0$OFF 000000  
                 __CFG_CP1$OFF 000000                   __CFG_CP2$OFF 000000                   __CFG_CP3$OFF 000000  
                 ___flpack@arg 0001                            PL10 7640                            PL20 7E22  
                          PL12 7E14                            PL30 7690                            PL22 7400  
                          PL14 73EA                            PL40 7298                            PL32 7E90  
                          PL24 7E4E                            PL16 764E                            PL50 76A8  
                          PL42 7EBE                            PL34 769E                            PL26 7E66  
                          PL18 7662                            PL52 7EE0                            PL44 7420  
                          PL36 7EA8                            PL28 7E82                            PL54 6C28  
                          PL46 6C16                            PL38 7412                            PL56 6DAA  
                          PL48 7ED0                   ___flpack@exp 0005                            l112 64FA  
                          l106 6506                            l140 673C                            l118 6512  
                          l302 76CE                            l135 6726                            l151 6620  
                          l144 6746                            l136 6728                            l312 7778  
                          l139 6742                            l156 6616                            l180 6826  
                          l292 75F0                            l365 7B40                            l640 6D62  
                          l384 7D02                            l641 6D6A                            l633 6D36  
                          l713 6C14                            l650 7296                            l706 6806  
                          l810 6E84                            l386 7D28                            l707 6824  
                          l387 7D2C                            l628 6D02                            l629 6DA8  
                          l653 719C                            l813 6E34                            l664 7234  
                          l681 6B7A                            l649 7174                            l753 6AD4  
                          l819 6E74                            l909 68D2                            l689 6CF2  
                          l698 6CE2                            l899 69B0                   __CFG_CPB$OFF 000000  
                 __CFG_CPD$OFF 000000                   ___awmod@sign 0006                            wreg 000FE8  
                 ___flmul@cntr 001C           I2C_Init@clock_output 0001                   ___flmul@sign 001D  
                 __CFG_LVP$OFF 000000                  ___flpack@sign 0006                   ___fltol@exp1 0030  
                 __CFG_WDT$OFF 000000                           l2201 7202                           l2133 6D0C  
                         l2213 724A                           l3021 7B44                           l2143 6D4C  
                         l2135 6D10                           l2207 7222                           l2311 6A24  
                         l3103 7D06                           l3015 7B20                           l3007 7B10  
                         l2161 6518                           l2145 6D58                           l2137 6D28  
                         l2225 726A                           l2209 722E                           l3113 7D3C  
                         l3121 7D4C                           l3033 7BC0                           l3017 7B2C  
                         l3009 7B18                           l2235 6B90                           l2315 6A30  
                         l2307 6A1A                           l2331 6902                           l3123 7D52  
                         l3051 7C30                           l3043 7C20                           l2261 6BD6  
                         l2237 6B9A                           l3133 7D72                           l3141 7DDE  
                         l3045 7C28                           l3029 7B60                           l3053 7C3A  
                         l2175 71AE                           l2351 6942                           l2343 692C  
                         l2335 690E                           l2327 68F6                           l2503 7576  
                         l3135 7D76                           l3063 7C6E                           l3143 7DEC  
                         l2425 674A                           l2169 7186                           l2249 6BC0  
                         l2601 6CA0                           l2361 66B2                           l2521 655E  
                         l2337 6916                           l3129 7D5E                           l3145 7DF6  
                         l2195 71E8                           l2611 6CBA                           l2283 69D4  
                         l2339 691A                           l2347 6936                           l3091 7CCC  
                         l3083 7C94                           l3075 7C86                           l2197 71F4  
                         l2189 71C8                           l2621 6CDE                           l2373 66CC  
                         l2365 66B8                           l2509 75C8                           l3069 7C82  
                         l2199 71FC                           l2703 6574                           l2711 6A4E  
                         l2615 6CCA                           l2527 6DCE                           l2367 66BC  
                         l2471 73C0                           l2463 7366                           l2295 69F4  
                         l3087 7CAE                           l2529 6DD8                           l2377 66D4  
                         l2393 65F0                           l2385 65DA                           l2297 69FC  
                         l2289 69E4                           l3097 7CE2                           l2619 6CD2  
                         l2571 6E64                           l2563 6E4C                           l2547 6E0E  
                         l2299 6A00                           l2491 74F2                           l2637 67AC  
                         l2661 6B12                           l2741 6AC4                           l2733 6AA0  
                         l2725 6A88                           l2709 6A44                           l2573 6E70  
                         l2485 74B0                           l3189 70A8                           l2647 6AEA  
                         l2735 6AAC                           l2751 6964                           l2567 6E5C  
                         l2495 7500                           l2649 6AF4                           l2681 675C  
                         l2737 6AB0                           l2729 6A98                           l2753 6970  
                         l2593 6C72                           l2577 6C40                           l2921 7914  
                         l2913 78B8                           l2905 7854                           l2763 69A2  
                         l2755 6974                           l2771 6892                           l2579 6C4A  
                         l2923 7922                           l2835 76D8                           l2669 6B40  
                         l2773 689E                           l2917 78CC                           l2845 76F0  
                         l2853 7732                           l2829 76BA                           l2695 6822  
                         l2775 68A2                           l2943 79DC                           l2919 78DA  
                         l2871 7784                           l2863 776E                           l2839 76DE  
                         l2793 658C                           l2689 67F0                           l2961 7A5E  
                         l2953 7A50                           l2929 7958                           l2873 779C  
                         l2779 68C4                           l2947 7A4C                           l2867 7780  
                         l2859 7744                           l2965 7A8C                           l2983 7AB6  
                         l2991 7ACA                           l2879 77AE                           l2993 7AD6  
                         l2985 7AC4                           l2977 7AAE                           l2969 7A9C  
                         l2889 77F4                           l2999 7AEE                           STR_1 7FB3  
                         STR_2 7FF0                           STR_3 7FDE                           STR_4 7FCC  
                         STR_5 7F9A                           STR_6 7F7F                           u3120 7B3A  
                         u2401 6DC6                           u2421 6DE8                           u2800 684A  
                         u1770 6522                           u2810 687A                           u2660 6A6C  
                         u2807 6840                           u2817 6870                           u2665 6A62  
                         u3377 7088                           u1778 6524                           u3387 6592  
                         u2990 7958          __size_of_I2C_ReadByte 003E                           _main 7054  
             __end_of_I2C_Idle 6530               __end_of_I2C_Init 654A                           fsr0h 000FEA  
                         indf0 000FEF                           fsr0l 000FE9                           fsr2h 000FDA  
                         indf2 000FDF                           fsr2l 000FD9               __end_of_I2C_Stop 6518  
                         prodh 000FF4                           prodl 000FF3                           start 0000  
                __CFG_IESO$OFF 000000                   _sprintf$1443 0064                  __CFG_MCLRE$ON 000000  
                 ___param_bank 000010                    _putrsserial 6826    __size_of_ES15007_Get_Serial 0038  
  __size_of_ES15007_Get_Status 002A                  ___fltol@sign1 002F                __end_of___fladd 7298  
                        ?_main 0001                __end_of___fldiv 6B7C                __end_of___awdiv 6A3A  
              __end_of___lbdiv 66D8                __end_of___flneg 6586                __end_of___awmod 694C  
              __end_of___lbmod 65F8                __end_of___flmul 6C16                __end_of___flsub 6792  
              __end_of___fltol 6AD6                          _CMCON 000FB4                __end_of___lldiv 69C2  
              ___awdiv@divisor 0009                __end_of___llmod 68E4                ___awdiv@counter 000B  
                        _RCSTA 000FAB                          _SPBRG 000FAF                          _TRISA 000F92  
                        _TRISB 000F93                          _TRISC 000F94                          _TXREG 000FAD  
                        _TXSTA 000FAC                  __CFG_PWRT$OFF 000000                  __CFG_WRT0$OFF 000000  
                __CFG_WRT1$OFF 000000                  __CFG_WRT2$OFF 000000                  __CFG_WRT3$OFF 000000  
               __CFG_EBTR0$OFF 000000                 __CFG_FCMEN$OFF 000000                 __CFG_EBTR1$OFF 000000  
               __CFG_EBTR2$OFF 000000                 __CFG_EBTR3$OFF 000000                   _I2C_ReadByte 6710  
                __CFG_WRTB$OFF 000000                  __CFG_WRTC$OFF 000000                  __CFG_WRTD$OFF 000000  
               __CFG_EBTRB$OFF 000000                __end_of_dpowers 7F7F              __end_of_I2C_Close 64E2  
                        _scale 7432                __end_of_isdigit 6566                    _writeserial 64E2  
            __end_of_I2C_Start 650C                 __CFG_BOREN$OFF 000000                          tablat 000FF5  
                        status 000FD8                __end_of_sprintf 7E00                ___lbdiv@divisor 0005  
              ___lbdiv@counter 0007               __end_of_Delay_ms 65AC                __initialization 64EA  
                 __end_of_main 7152                         ??_main 007F                  __activetblptr 000002  
         __size_of__tdiv_to_l_ 00D0                         _ADCON1 000FC1         __size_of_I2C_WriteByte 002A  
             __end_of___altofl 67DA               ___llmod@dividend 000E                         ?_scale 001E  
             __end_of___flpack 6DAA               ___awdiv@dividend 0007               __end_of___lltofl 66A4  
             __end_of___lwtofl 6676                         _OSCCON 000FD3                         _SSPADD 000FC8  
                       _SSPBUF 000FC9              ?_ES15007_ReadTemp 004A                 __CFG_XINST$OFF 000000  
             __end_of__powers_ 7F57             ??_ES15007_ReadTemp 004E                         ___flge 67DA  
                    ??___fladd 0037                         ___wmul 65AC                      ??___fldiv 0043  
                    ??___awdiv 000B                      ??___lbdiv 0006                      ??___flneg 0005  
                    ??___awmod 0005                      ??___lbmod 0002                      ??___flmul 0017  
                    ??___flsub 0043                      ??___fltol 002B                      ??___lldiv 0009  
                    ??___llmod 0016                  Delay_ms@count 0001                         _fround 72AC  
             ___awdiv@quotient 000D                ___awmod@divisor 0003                ___awmod@counter 0005  
                    ?_I2C_Idle 0001                      ??_isdigit 0001                      ?_I2C_Init 0001  
                    ?_I2C_Stop 0001                   __mediumconst 7EEE                         tblptrh 000FF7  
                       tblptrl 000FF6                         tblptru 000FF8                      ??_sprintf 0060  
             ___lbdiv@dividend 0006                     ___fladd@f1 002F                     ___fladd@f2 0033  
                   ___flge@ff1 0001                     ___flge@ff2 0005                ___lbmod@divisor 0001  
ES15007_ReadPress@qzd_press_hi 0058  ES15007_ReadPress@qzd_press_lo 0056                     ___altofl@c 000B  
                   ___fldiv@f1 003B                     ___fldiv@f2 003F                     ___fldiv@f3 0043  
                   __accesstop 0080        __end_of__initialization 64EA                ___lbmod@counter 0003  
              __CFG_PBADEN$OFF 000000                     ___flneg@f1 0001                     ___flmul@f1 000F  
                   ___flmul@f2 0013                  ___rparam_used 000001                     ___flsub@f1 003B  
                   ___flsub@f2 003F                     ___fltol@f1 0027                 __pcstackCOMRAM 0001  
                _I2C_WriteByte 65F8       ES15007_Get_Status@status 0004                     ___lltofl@c 000B  
                __end_of_scale 75F2                     __end_ofPL2 760E                     __end_ofPL4 762A  
                   __end_ofPL6 7E14                     __end_ofPL8 7640               ___lbdiv@quotient 0008  
                   ___lwtofl@c 000B                     __div_to_l_ 6C36                     ??_I2C_Idle 0001  
                   ??_I2C_Init 0001                     ??_I2C_Stop 0002                      ?_Delay_ms 0001  
              __div_to_l_@exp1 000E                __div_to_l_@cntr 000D                        ??_scale 0022  
              __div_to_l_@quot 0009                   sprintf@width 0075                  __div_to_l_@f1 0001  
                __div_to_l_@f2 0005                 ?_I2C_WriteByte 0001                        ?___flge 0001  
                 ?_putrsserial 0002                        ?___wmul 0001                      ?___altofl 000B  
                      _BAUDCON 000FB8                      ?___flpack 0001                        ?_fround 001E  
                    ?___lltofl 000B                      ?___lwtofl 000B         ES15007_ReadPress@press 0052  
                   ??_Delay_ms 0003                        _SSPCON1 000FC6                        _SSPCON2 000FC5  
                 ?_writeserial 0001                        _SSPSTAT 000FC7              _ES15007_ReadPress 6E86  
           ?_ES15007_ReadPress 004A                      _I2C_Close 64DE                putrsserial@data 0002  
                    _I2C_Start 6500              __end_of__npowers_ 7F23                        __Hparam 0000  
                   _scale$1442 0022                        __Lparam 0000            ??_ES15007_ReadPress 004E  
       I2C_ReadByte@buffer_I2C 0003     __end_of_ES15007_Get_Serial 6710     __end_of_ES15007_Get_Status 664C  
              __size_of___flge 004C                        ___fladd 7152                        ___fldiv 6AD6  
                      ___awdiv 69C2                        ___lbdiv 66A4                        ___flneg 6566  
                      ___awmod 68E4                        ___lbmod 65D2                        ___flmul 6B7C  
                      ___flsub 674E                        ___fltol 6A3A                        ___lldiv 694C  
              __size_of___wmul 0026                        ___llmod 6882                     ??___altofl 000F  
              __CFG_STVREN$OFF 000000                     ??___flpack 0007                        __pcinit 64EA  
              __size_of_fround 013E                        __ramtop 0600                     ??___lltofl 000F  
                      __ptext0 7054                        __ptext1 76B2                        __ptext2 7432  
                      __ptext3 68E4                        __ptext4 69C2                        __ptext5 654A  
                      __ptext6 72AC                        __ptext7 65D2                        __ptext8 66A4  
                      __ptext9 6DB6                     ??___lwtofl 000F                    ?__div_to_l_ 0001  
                      _dpowers 7F57                        _isdigit 654A               ___awmod@dividend 0001  
    __end_of_ES15007_ReadPress 6F5A                        main@aux 0080                        _sprintf 76B2  
         end_of_initialization 64EA                      Delay_ms@i 0004                  __Lmediumconst 7EEE  
                   ?_I2C_Close 0001                     ?_I2C_Start 0001                ??_I2C_WriteByte 0002  
              ___lldiv@divisor 0005                ___lldiv@counter 000D                        postdec2 000FDD  
                      postinc2 000FDE                 __tdiv_to_l_@f1 0001                 __tdiv_to_l_@f2 0005  
                ??__tdiv_to_l_ 0009      __size_of_ES15007_ReadTemp 00FA               ___lbmod@dividend 0002  
                    _TRISCbits 000F94              __size_of_I2C_Idle 0018              __size_of_I2C_Init 001A  
                  ___fldiv@exp 0048              __size_of_I2C_Stop 000C                    ___lbmod@rem 0004  
                  ___flmul@exp 0017                      _TXSTAbits 000FAC            __size_of__div_to_l_ 00BE  
  ES15007_ReadTemp@qzd_temp_hi 0054    ES15007_ReadTemp@qzd_temp_lo 0052                writeserial@data 0001  
               __end_of___flge 6826                 __end_of___wmul 65D2           __size_of_putrsserial 005C  
               __end_of_fround 73EA                    __end_ofPL10 764E                    __end_ofPL20 7E4E  
                  __end_ofPL12 7E22                    __end_ofPL30 769E                    __end_ofPL22 7412  
                  __end_ofPL14 7400                    __end_ofPL40 72AC                    __end_ofPL32 7EA8  
                  __end_ofPL24 7E66                    __end_ofPL16 7662                    __end_ofPL50 76B2  
                  __end_ofPL42 7ED0                    __end_ofPL34 76A8                    __end_ofPL26 7E82  
                  __end_ofPL18 7690                    __end_ofPL52 7EEE                    __end_ofPL44 7432  
                  __end_ofPL36 7EBE                    __end_ofPL28 7E90                    __end_ofPL54 6C36  
                  __end_ofPL46 6C28                    __end_ofPL38 7420                    __end_ofPL56 6DB6  
                  __end_ofPL48 7EE0            start_initialization 64EA            __end_of__tdiv_to_l_ 6E86  
   __size_of_ES15007_ReadPress 00D4              __size_of_Delay_ms 0026           ES15007_ReadTemp@temp 004E  
         __size_of_writeserial 0008                    ??_I2C_Close 0001                ___llmod@divisor 0012  
             __CFG_OSC$INTIO67 000000                    ??_I2C_Start 0002                ___llmod@counter 0016  
                     ??___flge 0009                       ??___wmul 0005              _I2C_RepeatedStart 64F4  
             __CFG_LPT1OSC$OFF 000000                       ??_fround 0022             ?_I2C_RepeatedStart 0001  
                sprintf@tmpval 0069              __size_of___altofl 0048              __size_of___flpack 00B6  
                   fround@prec 002E              __size_of___lltofl 002E              __size_of___lwtofl 002A  
                __pcstackBANK0 0080                  ?_I2C_ReadByte 0001            ??_I2C_RepeatedStart 0002  
                 _isdigit$1182 0002                    sprintf@flag 0073                    sprintf@fval 0077  
                  sprintf@prec 007B              __CFG_CCP2MX$PORTC 000000      __end_of_I2C_RepeatedStart 6500  
                __pmediumconst 7EEE                       ?___fladd 002F                       ?___fldiv 003B  
                     ?___awdiv 0007                       ?___lbdiv 0005                       ?___flneg 0001  
                     ?___awmod 0001                       ?___lbmod 0001                       ?___flmul 000F  
                     ?___flsub 003B                       ?___fltol 0027                       ?___lldiv 0001  
                     ?___llmod 000E                      __npowers_ 7EEF                    __tdiv_to_l_ 6DB6  
             _ES15007_ReadTemp 6F5A                   ??__div_to_l_ 0009                       _I2C_Idle 6518  
           _ES15007_Get_Serial 66D8                       ?_isdigit 0001                       _I2C_Init 6530  
      I2C_ReadByte@acknowledge 0002                       _I2C_Stop 650C                 ??_I2C_ReadByte 0002  
           _ES15007_Get_Status 6622                       ?_sprintf 005A                 __size_of_scale 01C0  
          ?_ES15007_Get_Serial 0004            ?_ES15007_Get_Status 0001                 ___wmul@product 0005  
           __end_of__div_to_l_ 6CF4               __CFG_WDTPS$32768 000000           ??_ES15007_Get_Serial 0006  
         ??_ES15007_Get_Status 0004              ___wmul@multiplier 0001                       _Delay_ms 6586  
                     __Hrparam 0000                       __Lrparam 0000          __end_of_I2C_WriteByte 6622  
   __size_of_I2C_RepeatedStart 000C               __size_of___fladd 0146               __size_of___fldiv 00A6  
             __size_of___awdiv 0078               __size_of___lbdiv 0034               __size_of___flneg 0020  
             __size_of___awmod 0068               __size_of___lbmod 0026               __size_of___flmul 009A  
             __size_of___flsub 0044               __size_of___fltol 009C                       ___altofl 6792  
             __size_of___lldiv 0076               __size_of___llmod 0062                       ___flpack 6CF4  
                  _fround$1440 002A                    _fround$1441 0026                       ___lltofl 6676  
                     ___lwtofl 664C                     sprintf@exp 0071                     sprintf@val 006D  
             __size_of_isdigit 001C                       __ptext10 6C36                       __ptext11 65AC  
                     __ptext20 64E2                       __ptext12 6676                       __ptext21 6530  
                     __ptext13 6882                       __ptext30 6CF4                       __ptext22 64DE  
                     __ptext14 694C                       __ptext31 6622                       __ptext23 6F5A  
                     __ptext15 6A3A                       __ptext32 66D8                       __ptext24 664C  
                     __ptext16 674E                       __ptext33 65F8                       __ptext25 6B7C  
                     __ptext17 6566                       __ptext34 650C                       __ptext26 7152  
                     __ptext18 67DA                       __ptext35 6500                       __ptext27 6E86  
                     __ptext19 6826                       __ptext36 64F4                       __ptext28 6AD6  
                     __ptext37 6710                       __ptext29 6792                       __ptext38 6518  
                     __ptext39 6586                       __powers_ 7F23               __size_of_sprintf 074E  
                __size_of_main 00FE       ES15007_Get_Serial@serial 0006          I2C_WriteByte@data_out 0002  
         __end_of_I2C_ReadByte 674E                  ??_putrsserial 0004          ___flmul@f3_as_product 0018  
                     isdigit@c 0003                       scale@scl 0026                  ??_writeserial 0001  
                    sprintf@ap 0068               __tdiv_to_l_@exp1 0011                      sprintf@sp 007D  
             __tdiv_to_l_@cntr 0010               __tdiv_to_l_@quot 000C               ___lldiv@dividend 0001  
     __end_of_ES15007_ReadTemp 7054                   ?__tdiv_to_l_ 0001            __end_of_putrsserial 6882  
                     sprintf@c 007E                       sprintf@f 005A               ___lldiv@quotient 0009  
                  _SSPCON1bits 000FC6                    _SSPCON2bits 000FC5                   ___fladd@exp1 003A  
                 ___fladd@exp2 0039                   ___fladd@sign 0038            __end_of_writeserial 64EA  
